
Mode1.elf:     file format elf32-littlenios2
Mode1.elf
architecture: nios2:r1, flags 0x00000112:
EXEC_P, HAS_SYMS, D_PAGED
start address 0x00800244

Program Header:
    LOAD off    0x00001000 vaddr 0x00800000 paddr 0x00800000 align 2**12
         filesz 0x00000020 memsz 0x00000020 flags r-x
    LOAD off    0x00001020 vaddr 0x00800020 paddr 0x00800020 align 2**12
         filesz 0x00015070 memsz 0x00015070 flags r-x
    LOAD off    0x00016090 vaddr 0x00815090 paddr 0x00816d6c align 2**12
         filesz 0x00001cdc memsz 0x00001cdc flags rw-
    LOAD off    0x00018a48 vaddr 0x00818a48 paddr 0x00818a48 align 2**12
         filesz 0x00000000 memsz 0x00000364 flags rw-

Sections:
Idx Name          Size      VMA       LMA       File off  Algn
  0 .entry        00000020  00800000  00800000  00001000  2**5
                  CONTENTS, ALLOC, LOAD, READONLY, CODE
  1 .exceptions   00000224  00800020  00800020  00001020  2**2
                  CONTENTS, ALLOC, LOAD, READONLY, CODE
  2 .text         0001485c  00800244  00800244  00001244  2**2
                  CONTENTS, ALLOC, LOAD, READONLY, CODE
  3 .rodata       000005f0  00814aa0  00814aa0  00015aa0  2**2
                  CONTENTS, ALLOC, LOAD, READONLY, DATA
  4 .rwdata       00001cdc  00815090  00816d6c  00016090  2**2
                  CONTENTS, ALLOC, LOAD, DATA, SMALL_DATA
  5 .bss          00000364  00818a48  00818a48  00018a48  2**2
                  ALLOC, SMALL_DATA
  6 .sdram        00000000  00818dac  00818dac  00017d6c  2**0
                  CONTENTS
  7 .onchip_mem   00000000  01080000  01080000  00017d6c  2**0
                  CONTENTS
  8 .comment      00000023  00000000  00000000  00017d6c  2**0
                  CONTENTS, READONLY
  9 .debug_aranges 000010b0  00000000  00000000  00017d90  2**3
                  CONTENTS, READONLY, DEBUGGING
 10 .debug_info   0002b060  00000000  00000000  00018e40  2**0
                  CONTENTS, READONLY, DEBUGGING
 11 .debug_abbrev 0000a9bf  00000000  00000000  00043ea0  2**0
                  CONTENTS, READONLY, DEBUGGING
 12 .debug_line   0000e244  00000000  00000000  0004e85f  2**0
                  CONTENTS, READONLY, DEBUGGING
 13 .debug_frame  000028b4  00000000  00000000  0005caa4  2**2
                  CONTENTS, READONLY, DEBUGGING
 14 .debug_str    000045d9  00000000  00000000  0005f358  2**0
                  CONTENTS, READONLY, DEBUGGING
 15 .debug_loc    000183d7  00000000  00000000  00063931  2**0
                  CONTENTS, READONLY, DEBUGGING
 16 .debug_alt_sim_info 00000060  00000000  00000000  0007bd08  2**2
                  CONTENTS, READONLY, DEBUGGING
 17 .debug_ranges 000019a0  00000000  00000000  0007bd68  2**3
                  CONTENTS, READONLY, DEBUGGING
 18 .thread_model 00000003  00000000  00000000  00082acd  2**0
                  CONTENTS, READONLY
 19 .cpu          00000003  00000000  00000000  00082ad0  2**0
                  CONTENTS, READONLY
 20 .qsys         00000001  00000000  00000000  00082ad3  2**0
                  CONTENTS, READONLY
 21 .simulation_enabled 00000001  00000000  00000000  00082ad4  2**0
                  CONTENTS, READONLY
 22 .sysid_hash   00000004  00000000  00000000  00082ad5  2**0
                  CONTENTS, READONLY
 23 .sysid_base   00000004  00000000  00000000  00082ad9  2**0
                  CONTENTS, READONLY
 24 .sysid_time   00000004  00000000  00000000  00082add  2**0
                  CONTENTS, READONLY
 25 .stderr_dev   00000009  00000000  00000000  00082ae1  2**0
                  CONTENTS, READONLY
 26 .stdin_dev    00000009  00000000  00000000  00082aea  2**0
                  CONTENTS, READONLY
 27 .stdout_dev   00000009  00000000  00000000  00082af3  2**0
                  CONTENTS, READONLY
 28 .sopc_system_name 0000000c  00000000  00000000  00082afc  2**0
                  CONTENTS, READONLY
 29 .quartus_project_dir 00000017  00000000  00000000  00082b08  2**0
                  CONTENTS, READONLY
 30 .sopcinfo     0006b318  00000000  00000000  00082b1f  2**0
                  CONTENTS, READONLY
SYMBOL TABLE:
00800000 l    d  .entry	00000000 .entry
00800020 l    d  .exceptions	00000000 .exceptions
00800244 l    d  .text	00000000 .text
00814aa0 l    d  .rodata	00000000 .rodata
00815090 l    d  .rwdata	00000000 .rwdata
00818a48 l    d  .bss	00000000 .bss
00818dac l    d  .sdram	00000000 .sdram
01080000 l    d  .onchip_mem	00000000 .onchip_mem
00000000 l    d  .comment	00000000 .comment
00000000 l    d  .debug_aranges	00000000 .debug_aranges
00000000 l    d  .debug_info	00000000 .debug_info
00000000 l    d  .debug_abbrev	00000000 .debug_abbrev
00000000 l    d  .debug_line	00000000 .debug_line
00000000 l    d  .debug_frame	00000000 .debug_frame
00000000 l    d  .debug_str	00000000 .debug_str
00000000 l    d  .debug_loc	00000000 .debug_loc
00000000 l    d  .debug_alt_sim_info	00000000 .debug_alt_sim_info
00000000 l    d  .debug_ranges	00000000 .debug_ranges
00000000 l    df *ABS*	00000000 ../Mode1_bsp//obj/HAL/src/crt0.o
0080028c l       .text	00000000 alt_after_alt_main
00000000 l    df *ABS*	00000000 alt_irq_handler.c
00000000 l    df *ABS*	00000000 alt_instruction_exception_entry.c
00000000 l    df *ABS*	00000000 main.c
00000000 l    df *ABS*	00000000 lib2-divmod.c
00000000 l    df *ABS*	00000000 fclose.c
00000000 l    df *ABS*	00000000 fflush.c
00000000 l    df *ABS*	00000000 findfp.c
00803d28 l     F .text	00000008 __fp_unlock
00803d3c l     F .text	0000019c __sinit.part.1
00803ed8 l     F .text	00000008 __fp_lock
00000000 l    df *ABS*	00000000 fopen.c
00000000 l    df *ABS*	00000000 fprintf.c
00000000 l    df *ABS*	00000000 mallocr.c
00000000 l    df *ABS*	00000000 fseek.c
00000000 l    df *ABS*	00000000 fseeko.c
00000000 l    df *ABS*	00000000 fstatr.c
00000000 l    df *ABS*	00000000 fwalk.c
00000000 l    df *ABS*	00000000 fwrite.c
00000000 l    df *ABS*	00000000 impure.c
00815090 l     O .rwdata	00000424 impure_data
00000000 l    df *ABS*	00000000 int_errno.c
00000000 l    df *ABS*	00000000 makebuf.c
00000000 l    df *ABS*	00000000 mallocr.c
00000000 l    df *ABS*	00000000 memset.c
00000000 l    df *ABS*	00000000 openr.c
00000000 l    df *ABS*	00000000 refill.c
00805908 l     F .text	0000001c lflush
00000000 l    df *ABS*	00000000 sbrkr.c
00000000 l    df *ABS*	00000000 stdio.c
00000000 l    df *ABS*	00000000 vfprintf.c
00814b4a l     O .rodata	00000010 zeroes.4404
00807e9c l     F .text	000000bc __sbprintf
00814b5a l     O .rodata	00000010 blanks.4403
00000000 l    df *ABS*	00000000 writer.c
00000000 l    df *ABS*	00000000 wsetup.c
00000000 l    df *ABS*	00000000 closer.c
00000000 l    df *ABS*	00000000 dtoa.c
00808160 l     F .text	00000200 quorem
00000000 l    df *ABS*	00000000 flags.c
00000000 l    df *ABS*	00000000 fvwrite.c
00000000 l    df *ABS*	00000000 isattyr.c
00000000 l    df *ABS*	00000000 locale.c
008158dc l     O .rwdata	00000020 lc_ctype_charset
008158bc l     O .rwdata	00000020 lc_message_charset
008158fc l     O .rwdata	00000038 lconv
00000000 l    df *ABS*	00000000 lseekr.c
00000000 l    df *ABS*	00000000 memchr.c
00000000 l    df *ABS*	00000000 memcpy.c
00000000 l    df *ABS*	00000000 memmove.c
00000000 l    df *ABS*	00000000 mprec.c
00814b88 l     O .rodata	0000000c p05.2768
00000000 l    df *ABS*	00000000 readr.c
00000000 l    df *ABS*	00000000 mallocr.c
00000000 l    df *ABS*	00000000 s_fpclassify.c
00000000 l    df *ABS*	00000000 strcmp.c
00000000 l    df *ABS*	00000000 strlen.c
00000000 l    df *ABS*	00000000 vfprintf.c
0080bc10 l     F .text	000000fc __sprint_r.part.0
00814cbc l     O .rodata	00000010 blanks.4348
00814cac l     O .rodata	00000010 zeroes.4349
0080d19c l     F .text	000000bc __sbprintf
00000000 l    df *ABS*	00000000 mallocr.c
00000000 l    df *ABS*	00000000 fputwc.c
00000000 l    df *ABS*	00000000 wbuf.c
00000000 l    df *ABS*	00000000 wcrtomb.c
00000000 l    df *ABS*	00000000 wctomb_r.c
00000000 l    df *ABS*	00000000 libgcc2.c
00000000 l    df *ABS*	00000000 libgcc2.c
00000000 l    df *ABS*	00000000 adddf3.c
00000000 l    df *ABS*	00000000 divdf3.c
00000000 l    df *ABS*	00000000 eqdf2.c
00000000 l    df *ABS*	00000000 gedf2.c
00000000 l    df *ABS*	00000000 ledf2.c
00000000 l    df *ABS*	00000000 muldf3.c
00000000 l    df *ABS*	00000000 subdf3.c
00000000 l    df *ABS*	00000000 fixdfsi.c
00000000 l    df *ABS*	00000000 floatsidf.c
00000000 l    df *ABS*	00000000 floatunsidf.c
00000000 l    df *ABS*	00000000 libgcc2.c
00000000 l    df *ABS*	00000000 libgcc2.c
00000000 l    df *ABS*	00000000 alt_alarm_start.c
00000000 l    df *ABS*	00000000 alt_close.c
00810aa8 l     F .text	0000003c alt_get_errno
00000000 l    df *ABS*	00000000 alt_dev.c
00810bb4 l     F .text	0000002c alt_dev_null_write
00000000 l    df *ABS*	00000000 alt_errno.c
00000000 l    df *ABS*	00000000 alt_fstat.c
00810be0 l     F .text	0000003c alt_get_errno
00000000 l    df *ABS*	00000000 alt_isatty.c
00810ccc l     F .text	0000003c alt_get_errno
00000000 l    df *ABS*	00000000 alt_load.c
00810dac l     F .text	00000068 alt_load_section
00000000 l    df *ABS*	00000000 alt_lseek.c
00810e98 l     F .text	0000003c alt_get_errno
00000000 l    df *ABS*	00000000 alt_main.c
00000000 l    df *ABS*	00000000 alt_malloc_lock.c
00000000 l    df *ABS*	00000000 alt_open.c
0081106c l     F .text	0000003c alt_get_errno
008110a8 l     F .text	000000c4 alt_file_locked
00000000 l    df *ABS*	00000000 alt_read.c
008112c0 l     F .text	0000003c alt_get_errno
00000000 l    df *ABS*	00000000 alt_release_fd.c
00000000 l    df *ABS*	00000000 alt_sbrk.c
00816d54 l     O .rwdata	00000004 heap_end
00000000 l    df *ABS*	00000000 alt_tick.c
00000000 l    df *ABS*	00000000 alt_write.c
008116b0 l     F .text	0000003c alt_get_errno
00000000 l    df *ABS*	00000000 alt_sys_init.c
008117e4 l     F .text	00000034 alt_dev_reg
00815adc l     O .rwdata	00001060 jtag_uart
00816b3c l     O .rwdata	00000120 lcd
00816c5c l     O .rwdata	000000c4 uart
00000000 l    df *ABS*	00000000 altera_avalon_jtag_uart_fd.c
00000000 l    df *ABS*	00000000 altera_avalon_jtag_uart_init.c
00811b10 l     F .text	0000020c altera_avalon_jtag_uart_irq
00811d1c l     F .text	000000a0 altera_avalon_jtag_uart_timeout
00000000 l    df *ABS*	00000000 altera_avalon_jtag_uart_ioctl.c
00000000 l    df *ABS*	00000000 altera_avalon_jtag_uart_read.c
00000000 l    df *ABS*	00000000 altera_avalon_jtag_uart_write.c
00000000 l    df *ABS*	00000000 altera_avalon_lcd_16207.c
00816d60 l     O .rwdata	00000004 colstart
00812354 l     F .text	000000b8 lcd_write_command
0081240c l     F .text	000000d8 lcd_write_data
008124e4 l     F .text	000000d0 lcd_clear_screen
008125b4 l     F .text	000001ec lcd_repaint_screen
008127a0 l     F .text	000000cc lcd_scroll_up
0081286c l     F .text	000002ac lcd_handle_escape
00812ff0 l     F .text	000000ac alt_lcd_16207_timeout
00000000 l    df *ABS*	00000000 altera_avalon_lcd_16207_fd.c
00000000 l    df *ABS*	00000000 altera_avalon_timer_sc.c
00813230 l     F .text	00000078 alt_avalon_timer_sc_irq
00000000 l    df *ABS*	00000000 altera_avalon_uart_fd.c
00000000 l    df *ABS*	00000000 altera_avalon_uart_init.c
008134e0 l     F .text	0000009c altera_avalon_uart_irq
0081357c l     F .text	000000e4 altera_avalon_uart_rxirq
00813660 l     F .text	00000148 altera_avalon_uart_txirq
00000000 l    df *ABS*	00000000 altera_avalon_uart_read.c
008137fc l     F .text	0000003c alt_get_errno
00000000 l    df *ABS*	00000000 altera_avalon_uart_write.c
00813a14 l     F .text	0000003c alt_get_errno
00000000 l    df *ABS*	00000000 alt_dcache_flush_all.c
00000000 l    df *ABS*	00000000 alt_dev_llist_insert.c
00813c44 l     F .text	0000003c alt_get_errno
00000000 l    df *ABS*	00000000 alt_do_ctors.c
00000000 l    df *ABS*	00000000 alt_do_dtors.c
00000000 l    df *ABS*	00000000 alt_find_dev.c
00000000 l    df *ABS*	00000000 alt_find_file.c
00000000 l    df *ABS*	00000000 alt_get_fd.c
00000000 l    df *ABS*	00000000 alt_icache_flush_all.c
00000000 l    df *ABS*	00000000 alt_iic.c
00000000 l    df *ABS*	00000000 alt_iic_isr_register.c
00000000 l    df *ABS*	00000000 alt_io_redirect.c
008142f4 l     F .text	000000c4 alt_open_fd
00000000 l    df *ABS*	00000000 alt_irq_vars.c
00000000 l    df *ABS*	00000000 alt_usleep.c
00000000 l    df *ABS*	00000000 altera_nios2_gen2_irq.c
00000000 l    df *ABS*	00000000 alt_busy_sleep.c
00000000 l    df *ABS*	00000000 alt_icache_flush.c
00000000 l    df *ABS*	00000000 atexit.c
00000000 l    df *ABS*	00000000 ctype_.c
00814f0f l     O .rodata	00000180 _ctype_b
00000000 l    df *ABS*	00000000 exit.c
00000000 l    df *ABS*	00000000 memcmp.c
00000000 l    df *ABS*	00000000 __atexit.c
00000000 l    df *ABS*	00000000 __call_atexit.c
00000000 l    df *ABS*	00000000 alt_exit.c
00818a70 g     O .bss	00000001 _cg42
00818bf0 g     O .bss	00000004 alt_instruction_exception_handler
00818a71 g     O .bss	00000001 g142b
00818a72 g     O .bss	00000001 g83
00818a73 g     O .bss	00000001 g40
0080b2ec g     F .text	00000074 _mprec_log10
0080b3d8 g     F .text	0000008c __any_on
00809f50 g     F .text	00000054 _isatty_r
00814b94 g     O .rodata	00000028 __mprec_tinytens
00818a74 g     O .bss	00000001 g91
00810fa8 g     F .text	0000007c alt_main
00818a75 g     O .bss	00000001 APace
00818cac g     O .bss	00000100 alt_irq
0080a080 g     F .text	00000060 _lseek_r
00818a76 g     O .bss	00000001 g139
00818a77 g     O .bss	00000001 g4
00816d6c g       *ABS*	00000000 __flash_rwdata_start
00818a78 g     O .bss	00000001 g108
00818a79 g     O .bss	00000001 g19
00818a7a g     O .bss	00000001 g152
00818a7b g     O .bss	00000001 g111
008099e8 g     F .text	000000ac __sflags
0080f4a8 g     F .text	00000088 .hidden __eqdf2
00818a64 g     O .bss	00000004 URI_ex_flag
00818dac g       *ABS*	00000000 __alt_heap_start
0080d67c g     F .text	0000009c _wcrtomb_r
008030c0 g     F .text	0000002c AEI_timer_ISR
00805c24 g     F .text	0000005c __sseek
00818a7c g     O .bss	00000001 g56b
00804078 g     F .text	00000010 __sinit
0080d524 g     F .text	00000140 __swbuf_r
00818a7d g     O .bss	00000001 g55
00818a7e g     O .bss	00000001 _cg96
00818a7f g     O .bss	00000001 g27
00809fa4 g     F .text	0000007c _setlocale_r
008036f4 g     F .text	00000040 clearSignals
00803ee0 g     F .text	00000068 __sfmoreglue
00811048 g     F .text	00000024 __malloc_unlock
00818a80 g     O .bss	00000001 g112
00818a58 g     O .bss	00000004 AVI_ex_flag
00818a81 g     O .bss	00000001 g3
00818a82 g     O .bss	00000001 AEI_ex
00818a83 g     O .bss	00000001 PRE_g63
0080a30c g     F .text	0000015c memmove
00818a84 g     O .bss	00000001 g146
00818a85 g     O .bss	00000001 g103
00818a86 g     O .bss	00000001 g47
00818a87 g     O .bss	00000001 g85
00818a88 g     O .bss	00000001 g42
00804060 g     F .text	00000018 _cleanup
00818a89 g     O .bss	00000001 g102_e7
00818a8a g     O .bss	00000001 PRE_g114
0080a468 g     F .text	000000a8 _Balloc
00818a8b g     O .bss	00000001 g9
00818a8c g     O .bss	00000001 g127
00818a8d g     O .bss	00000001 _cg7
00818a90 g     O .bss	00000004 _PRE_GO
00818a94 g     O .bss	00000001 PRE_g149
00818a95 g     O .bss	00000001 PRE_g3
00818a98 g     O .bss	00000004 count2
00818a9c g     O .bss	00000001 g145
00818a9d g     O .bss	00000001 g102
00818a9e g     O .bss	00000001 g140
0080f530 g     F .text	000000dc .hidden __gtdf2
00814464 g     F .text	00000024 altera_nios2_gen2_irq_init
00818a9f g     O .bss	00000001 _cg128
00818aa0 g     O .bss	00000001 _cg144
00818aa1 g     O .bss	00000001 g115
00818aa2 g     O .bss	00000001 AVI_start
00800000 g     F .entry	0000001c __reset
00818aa3 g     O .bss	00000001 _cg15
00816d20 g     O .rwdata	00000004 buttonValue
00800020 g       *ABS*	00000000 __flash_exceptions_start
00804ad4 g     F .text	0000005c _fstat_r
00818bbc g     O .bss	00000004 errno
00818aa4 g     O .bss	00000001 _cg73
00818aa5 g     O .bss	00000001 g87
00818aa6 g     O .bss	00000001 g44
00805ba0 g     F .text	00000008 __seofread
00818aa7 g     O .bss	00000001 g150
008031f8 g     F .text	000000b4 lcd_update
00818aa8 g     O .bss	00000001 g123
00818bdc g     O .bss	00000004 alt_argv
0081ed20 g       *ABS*	00000000 _gp
00814434 g     F .text	00000030 usleep
00818aa9 g     O .bss	00000001 _cg84
00800290 g     F .text	000000b0 reset
00818aaa g     O .bss	00000001 AVI_stop
00818aab g     O .bss	00000001 g92
00818aac g     O .bss	00000001 g1
00818aad g     O .bss	00000001 g61
0081595c g     O .rwdata	00000180 alt_fd_list
00818aae g     O .bss	00000001 g135
00818aaf g     O .bss	00000001 g71
00818ab0 g     O .bss	00000001 g51_e3
00818ab1 g     O .bss	00000001 PRE_g141
00803328 g     F .text	00000208 timer_handler
00818ab2 g     O .bss	00000001 PRE_g28
00813de4 g     F .text	00000090 alt_find_dev
0080a1c4 g     F .text	00000148 memcpy
00818ab3 g     O .bss	00000001 g126
00803d30 g     F .text	0000000c _cleanup_r
00810794 g     F .text	000000dc .hidden __floatsidf
00818ab4 g     O .bss	00000001 g82
008143b8 g     F .text	0000007c alt_io_redirect
0080f60c g     F .text	000000f4 .hidden __ltdf2
00818ab5 g     O .bss	00000001 PRE_g69
00818ab6 g     O .bss	00000001 PRE_g24
00814aa0 g       *ABS*	00000000 __DTOR_END__
00818ab7 g     O .bss	00000001 _cg98
00818ab8 g     O .bss	00000001 g12
00814670 g     F .text	0000009c alt_exception_cause_generated_bad_addr
00818ab9 g     O .bss	00000001 g97
00818aba g     O .bss	00000001 g52
00818abb g     O .bss	00000001 g126b
0080ba28 g     F .text	00000074 __fpclassifyd
0080b248 g     F .text	000000a4 __ratio
0080d180 g     F .text	0000001c __vfiprintf_internal
00811f14 g     F .text	0000021c altera_avalon_jtag_uart_read
008038c0 g     F .text	00000064 .hidden __udivsi3
00810d08 g     F .text	000000a4 isatty
00818abc g     O .bss	00000001 g17
00818abd g     O .bss	00000001 g61b
00814be4 g     O .rodata	000000c8 __mprec_tens
00818abe g     O .bss	00000001 g147_e1
0080a020 g     F .text	0000000c __locale_charset
00818abf g     O .bss	00000001 g76
00818ac0 g     O .bss	00000001 g31
008145e0 g     F .text	00000090 alt_icache_flush
00818ac1 g     O .bss	00000001 g37
00818bc8 g     O .bss	00000004 __malloc_top_pad
00816d34 g     O .rwdata	00000004 __mb_cur_max
0080a050 g     F .text	0000000c _localeconv_r
00818ac2 g     O .bss	00000001 g62
0080a874 g     F .text	0000003c __i2b
00809a94 g     F .text	000004bc __sfvwrite_r
00818c1c g     O .bss	00000018 PVARP_timer
00805af8 g     F .text	00000054 _sbrk_r
00818ac3 g     O .bss	00000001 g84
00818ac4 g     O .bss	00000001 g41
00818ac5 g     O .bss	00000001 _cg142
00818ac6 g     O .bss	00000001 _cg119
00818ac7 g     O .bss	00000001 _cg61
00818ac8 g     O .bss	00000001 g118
00818ac9 g     O .bss	00000001 PRE_g85
0080b464 g     F .text	00000060 _read_r
00816d4c g     O .rwdata	00000004 alt_max_fd
00818aca g     O .bss	00000001 PRE_g8
00803530 g     F .text	000000d0 setLights
00818acb g     O .bss	00000001 _cg126
00803118 g     F .text	0000002c URI_timer_ISR
00818acc g     O .bss	00000001 LRI_stop
0080397c g     F .text	000000f0 _fclose_r
00803cf8 g     F .text	00000030 fflush
00803094 g     F .text	0000002c AVI_timer_ISR
00818acd g     O .bss	00000001 _cg34
00818bc4 g     O .bss	00000004 __malloc_max_sbrked_mem
00818ace g     O .bss	00000001 g18
00818acf g     O .bss	00000001 ASense
00818c34 g     O .bss	00000018 VRP_timer
0080e314 g     F .text	000008ac .hidden __adddf3
00818ad0 g     O .bss	00000001 PRE_g104
00818ad1 g     O .bss	00000001 PRE_g53
00818ad2 g     O .bss	00000001 g132
0080aff0 g     F .text	0000010c __b2d
0080dddc g     F .text	00000538 .hidden __umoddi3
00810ed4 g     F .text	000000d4 lseek
00818ad4 g     O .bss	00000004 fd
00816d24 g     O .rwdata	00000004 _global_impure_ptr
00818ad8 g     O .bss	00000001 g48
00818ad9 g     O .bss	00000001 PRE_g35
0080b4c4 g     F .text	00000564 _realloc_r
00818dac g       *ABS*	00000000 __bss_end
00814204 g     F .text	000000f0 alt_iic_isr_register
00818ada g     O .bss	00000001 g47b
008115a8 g     F .text	00000108 alt_tick
00818adb g     O .bss	00000001 g74_e6
0080d864 g     F .text	00000578 .hidden __udivdi3
0080d480 g     F .text	00000024 _fputwc_r
00814bbc g     O .rodata	00000028 __mprec_bigtens
0080a658 g     F .text	00000104 __s2b
00810870 g     F .text	000000a8 .hidden __floatunsidf
00818adc g     O .bss	00000001 g38
00818add g     O .bss	00000001 g148
00818ade g     O .bss	00000001 g105
0080ad30 g     F .text	00000060 __mcmp
00813434 g     F .text	000000ac altera_avalon_uart_init
00818ae0 g     O .bss	00000004 tps
00818ae4 g     O .bss	00000001 PRE_g116
00804098 g     F .text	00000018 __fp_lock_all
00818ae5 g     O .bss	00000001 g147_fix3
008141b8 g     F .text	0000004c alt_ic_irq_enabled
0081150c g     F .text	0000009c alt_alarm_stop
00818ae6 g     O .bss	00000001 g67_e5
00818bec g     O .bss	00000004 alt_irq_active
00804674 g     F .text	00000444 _fseeko_r
00818ae7 g     O .bss	00000001 g117
01080000 g       *ABS*	00000000 __alt_mem_onchip_mem
008000fc g     F .exceptions	000000d4 alt_irq_handler
00815934 g     O .rwdata	00000028 alt_dev_null
00818ae8 g     O .bss	00000001 _cg82
00818ae9 g     O .bss	00000001 g146_e12
00813bfc g     F .text	00000048 alt_dcache_flush_all
0080a75c g     F .text	00000068 __hi0bits
00818aea g     O .bss	00000001 PRE_g111
00810714 g     F .text	00000080 .hidden __fixdfsi
00818aeb g     O .bss	00000001 g64
00818aec g     O .bss	00000001 g21
00818aed g     O .bss	00000001 _cg107
00818aee g     O .bss	00000001 PRE_g46
00818aef g     O .bss	00000001 PRE_g55
00818af0 g     O .bss	00000001 g79
00818af1 g     O .bss	00000001 g34
00816d6c g       *ABS*	00000000 __ram_rwdata_end
00818af2 g     O .bss	00000001 g5
00816d44 g     O .rwdata	00000008 alt_dev_list
00818af3 g     O .bss	00000001 g94
00818af4 g     O .bss	00000001 g151
00818af5 g     O .bss	00000001 g110
00818af6 g     O .bss	00000001 g49
008116ec g     F .text	000000f8 write
00818af7 g     O .bss	00000001 g2
00818af8 g     O .bss	00000001 g7
00818af9 g     O .bss	00000001 _cg90
00815090 g       *ABS*	00000000 __ram_rodata_end
00810c1c g     F .text	000000b0 fstat
008041fc g     F .text	00000024 fprintf
0080f60c g     F .text	000000f4 .hidden __ledf2
00818afa g     O .bss	00000001 LRI_ex
00818afb g     O .bss	00000001 g44_e2
00818afc g     O .bss	00000001 g123_e9
00818afd g     O .bss	00000001 g80
0080aaa8 g     F .text	00000140 __pow5mult
0080bd24 g     F .text	0000145c ___vfiprintf_internal_r
00818bd4 g     O .bss	00000004 __nlocale_changed
00803924 g     F .text	00000058 .hidden __umodsi3
00818afe g     O .bss	00000001 g128
00818a6c g     O .bss	00000004 VRP_ex_flag
00818aff g     O .bss	00000001 g136
00818dac g       *ABS*	00000000 end
00818b00 g     O .bss	00000001 PRE_g143
00818b01 g     O .bss	00000001 g143
00818b02 g     O .bss	00000001 g100
00812b18 g     F .text	000004d8 altera_avalon_lcd_16207_write
00804ab8 g     F .text	0000001c fseeko
00818b03 g     O .bss	00000001 g59
00818b04 g     O .bss	00000001 g99
00818b05 g     O .bss	00000001 g54
00813a50 g     F .text	000001ac altera_avalon_uart_write
00804658 g     F .text	0000001c fseek
00818b06 g     O .bss	00000001 g66
00818b07 g     O .bss	00000001 g23
00811a50 g     F .text	000000c0 altera_avalon_jtag_uart_init
008001d0 g     F .exceptions	00000074 alt_instruction_exception_entry
00818a4c g     O .bss	00000004 prevMode
00818b08 g     O .bss	00000001 _cg137
00814aa0 g       *ABS*	00000000 __CTOR_LIST__
01000000 g       *ABS*	00000000 __alt_stack_pointer
008132a8 g     F .text	0000007c alt_avalon_timer_sc_init
00813384 g     F .text	00000060 altera_avalon_uart_write_fd
00810918 g     F .text	00000064 .hidden __clzsi2
008133e4 g     F .text	00000050 altera_avalon_uart_close_fd
00812130 g     F .text	00000224 altera_avalon_jtag_uart_write
00818b09 g     O .bss	00000001 PRE_g71
00804088 g     F .text	00000004 __sfp_lock_acquire
0080a0e0 g     F .text	000000e4 memchr
00818b0a g     O .bss	00000001 g14
00805c88 g     F .text	000021f8 ___vfprintf_internal_r
00818b0b g     O .bss	00000001 PRE_g79
00804344 g     F .text	00000310 _free_r
00803600 g     F .text	000000f4 setFlags
0080a02c g     F .text	00000010 __locale_mb_cur_max
008148ec g     F .text	00000180 __call_exitprocs
00818b0c g     O .bss	00000001 AVI_ex
00818b0d g     O .bss	00000001 g144
00818b0e g     O .bss	00000001 g101
00802fec g     F .text	000000a8 UART_send
00818b0f g     O .bss	00000001 VRP_ex
00818bd0 g     O .bss	00000004 __mlocale_changed
00818b10 g     O .bss	00000001 g109_e8
00816d2c g     O .rwdata	00000004 __malloc_sbrk_base
00800244 g     F .text	0000004c _start
00818b11 g     O .bss	00000001 _cg145
00818b12 g     O .bss	00000001 _cg100
00818b13 g     O .bss	00000001 g114
00818be4 g     O .bss	00000004 _alt_tick_rate
00818b14 g     O .bss	00000001 g56
00818b15 g     O .bss	00000001 g129
00818b16 g     O .bss	00000001 g131
0080abe8 g     F .text	00000148 __lshift
00818b17 g     O .bss	00000001 VSense
00818be8 g     O .bss	00000004 _alt_nticks
00818b18 g     O .bss	00000001 PRE_g6
008112fc g     F .text	000000fc read
00811850 g     F .text	0000009c alt_sys_init
00818b19 g     O .bss	00000001 g78
00818b1a g     O .bss	00000001 g33
008058a8 g     F .text	00000060 _open_r
008147d4 g     F .text	00000118 __register_exitproc
00818b1c g     O .bss	00000004 buffer
00818b20 g     O .bss	00000001 VRP_start
00818b21 g     O .bss	00000001 _cg133
00818b22 g     O .bss	00000001 g122
00803170 g     F .text	0000002c VRP_timer_ISR
00818b23 g     O .bss	00000001 g130_e10
00818b24 g     O .bss	00000001 URI_ex
0080a8b0 g     F .text	000001f8 __multiply
00811dbc g     F .text	00000068 altera_avalon_jtag_uart_close
00815090 g       *ABS*	00000000 __ram_rwdata_start
00814aa0 g       *ABS*	00000000 __ram_rodata_start
00818bf4 g     O .bss	00000028 __malloc_current_mallinfo
0080b0fc g     F .text	0000014c __d2b
00818b25 g     O .bss	00000001 _cg25
00818b26 g     O .bss	00000001 _cg64
00818b27 g     O .bss	00000001 _cg29
00818c4c g     O .bss	00000018 AVI_timer
00818b28 g     O .bss	00000001 PRE_g106
00818b29 g     O .bss	00000001 g134
00818c64 g     O .bss	00000018 LRI_timer
00818b2a g     O .bss	00000001 _cg136
008118ec g     F .text	00000060 altera_avalon_jtag_uart_read_fd
00818b2b g     O .bss	00000001 g35
00813f7c g     F .text	000000a4 alt_get_fd
00814488 g     F .text	00000158 alt_busy_sleep
00818b2c g     O .bss	00000001 g15
0080810c g     F .text	00000054 _close_r
00818b2d g     O .bss	00000001 g90
00818b2e g     O .bss	00000001 _GO
00818b2f g     O .bss	00000001 LRI_start
00814758 g     F .text	0000007c memcmp
008119ac g     F .text	00000050 altera_avalon_jtag_uart_close_fd
00818b30 g     O .bss	00000001 PRE_g11
00818dac g       *ABS*	00000000 __alt_stack_base
008119fc g     F .text	00000054 altera_avalon_jtag_uart_ioctl_fd
00804cb8 g     F .text	000000cc _fwrite_r
00807fb8 g     F .text	00000154 __swsetup_r
00800340 g     F .text	00002c18 tick
0080ebc0 g     F .text	000008e8 .hidden __divdf3
00803f48 g     F .text	00000118 __sfp
00818b31 g     O .bss	00000001 g63
00818b32 g     O .bss	00000001 g20
0080b360 g     F .text	00000078 __copybits
00818b33 g     O .bss	00000001 g60
00818b34 g     O .bss	00000001 _cg121
008154b4 g     O .rwdata	00000408 __malloc_av_
00804094 g     F .text	00000004 __sinit_lock_release
0080f700 g     F .text	00000718 .hidden __muldf3
00805b4c g     F .text	00000054 __sread
00818c7c g     O .bss	00000018 AEI_timer
00813e74 g     F .text	00000108 alt_find_file
00818b35 g     O .bss	00000001 g93
00813c80 g     F .text	000000a4 alt_dev_llist_insert
00811024 g     F .text	00000024 __malloc_lock
008041d4 g     F .text	00000028 _fprintf_r
0081145c g     F .text	000000b0 sbrk
00818b36 g     O .bss	00000001 _cg22
00818b37 g     O .bss	00000001 g119
00818b38 g     O .bss	00000001 g147_fix2
00803c9c g     F .text	0000005c _fflush_r
0080d258 g     F .text	000000c4 _calloc_r
00818b39 g     O .bss	00000001 g147_e1_fix
008041bc g     F .text	00000018 fopen
00818a48 g       *ABS*	00000000 __bss_start
00818b3a g     O .bss	00000001 g86
00818b3b g     O .bss	00000001 g43
00805780 g     F .text	00000128 memset
00803734 g     F .text	00000094 main
00818b3c g     O .bss	00000001 PRE_g125
00818b3d g     O .bss	00000001 _cg65
00818be0 g     O .bss	00000004 alt_envp
00818bc0 g     O .bss	00000004 __malloc_max_total_mem
0081194c g     F .text	00000060 altera_avalon_jtag_uart_write_fd
0080d664 g     F .text	00000018 __swbuf
00818b3e g     O .bss	00000001 g36
0081309c g     F .text	00000134 altera_avalon_lcd_16207_init
00818c94 g     O .bss	00000018 URI_timer
00818b3f g     O .bss	00000001 g58_e4
00818b40 g     O .bss	00000001 g89
00818b41 g     O .bss	00000001 g46
00805c80 g     F .text	00000008 __sclose
01000000 g       *ABS*	00000000 __alt_heap_limit
00803a6c g     F .text	00000014 fclose
00818b42 g     O .bss	00000001 VRP_stop
00818b43 g     O .bss	00000001 PVARP_start
00818a48 g     O .bss	00000004 currentMode
00808360 g     F .text	00001688 _dtoa_r
00804f74 g     F .text	0000080c _malloc_r
0080d7d8 g     F .text	00000030 __ascii_wctomb
00816d50 g     O .rwdata	00000004 alt_errno
00818b44 g     O .bss	00000001 PVARP_stop
00804b30 g     F .text	000000c4 _fwalk
00818b45 g     O .bss	00000001 g95
00818b46 g     O .bss	00000001 g50
008030ec g     F .text	0000002c LRI_timer_ISR
00818b47 g     O .bss	00000001 g96
00818b48 g     O .bss	00000001 g51
008037c8 g     F .text	00000084 .hidden __divsi3
00804220 g     F .text	00000124 _malloc_trim_r
00814aa0 g       *ABS*	00000000 __CTOR_END__
00818b49 g     O .bss	00000001 g138
00818b4a g     O .bss	00000001 PRE_g60
0080ba9c g     F .text	000000dc strcmp
00818b4b g     O .bss	00000001 _cg115
00818b4c g     O .bss	00000001 _cg70
00818b4d g     O .bss	00000001 _cg37
00818b4e g     O .bss	00000001 g107
00814aa0 g       *ABS*	00000000 __flash_rodata_start
00818b4f g     O .bss	00000001 g113
00814aa0 g       *ABS*	00000000 __DTOR_LIST__
00803144 g     F .text	0000002c PVARP_timer_ISR
00818b50 g     O .bss	00000001 _cg117
00818b51 g     O .bss	00000001 PRE_g48
00818a54 g     O .bss	00000004 ASense_flag
0080f4a8 g     F .text	00000088 .hidden __nedf2
00818b52 g     O .bss	00000001 _cg80
00818b53 g     O .bss	00000001 _cg41
00811818 g     F .text	00000038 alt_irq_init
00818b54 g     O .bss	00000001 _cg112
008113f8 g     F .text	00000064 alt_release_fd
00818b55 g     O .bss	00000001 g147
00818b56 g     O .bss	00000001 g104
00818b57 g     O .bss	00000001 g13
00814ccc g     O .rodata	00000100 .hidden __clz_tab
00818bcc g     O .bss	00000004 _PathLocale
00818b58 g     O .bss	00000001 g98
00818b59 g     O .bss	00000001 g53
00818b5a g     O .bss	00000001 g8
00818b5b g     O .bss	00000001 g147_fix0
008032ac g     F .text	0000007c switch_check
00818b5c g     O .bss	00000001 g57
0081470c g     F .text	00000014 atexit
00818b5d g     O .bss	00000001 AEI_start
00807f58 g     F .text	00000060 _write_r
00818b5e g     O .bss	00000001 g70
00818b60 g     O .bss	00000004 count1
00818b64 g     O .bss	00000001 _cg86
00818b65 g     O .bss	00000001 _cg47
0080a05c g     F .text	00000018 setlocale
00818b66 g     O .bss	00000001 g141
00818b67 g     O .bss	00000001 g36b
0080319c g     F .text	0000005c poll_buttons
00818b68 g     O .bss	00000001 g116
00816d28 g     O .rwdata	00000004 _impure_ptr
00818bd8 g     O .bss	00000004 alt_argc
00818b69 g     O .bss	00000001 g147_fix1
00818b6a g     O .bss	00000001 g6
00803a80 g     F .text	0000021c __sflush_r
00818b6b g     O .bss	00000001 _cg56
00813d84 g     F .text	00000060 _do_dtors
0080a048 g     F .text	00000008 __locale_cjk_lang
00818b6c g     O .bss	00000001 g72
00804654 g     F .text	00000004 _fseek_r
00818b6d g     O .bss	00000001 g81
00805924 g     F .text	000001d4 __srefill_r
00818b6e g     O .bss	00000001 PVARP_ex
00800020 g       .exceptions	00000000 alt_irq_entry
00818b6f g     O .bss	00000001 PRE_g76
00818b70 g     O .bss	00000001 PRE_g33
0080af8c g     F .text	00000064 __ulp
008040b0 g     F .text	00000018 __fp_unlock_all
00818b71 g     O .bss	00000001 g124
00818b72 g     O .bss	00000001 _cg108
008131d0 g     F .text	00000060 altera_avalon_lcd_16207_write_fd
00818b73 g     O .bss	00000001 _cg50
00818b74 g     O .bss	00000001 _cg13
00818b75 g     O .bss	00000001 _cg9
00816d3c g     O .rwdata	00000008 alt_fs_list
00818b76 g     O .bss	00000001 g137
00818b77 g     O .bss	00000001 _cg129
00818b78 g     O .bss	00000001 g0
00818b79 g     O .bss	00000001 _cg54
00818b7a g     O .bss	00000001 _cg17
00818b7b g     O .bss	00000001 g75
00818b7c g     O .bss	00000001 g30
00800020 g       *ABS*	00000000 __ram_exceptions_start
0080a074 g     F .text	0000000c localeconv
00818b7d g     O .bss	00000001 PRE_g21
00818b7e g     O .bss	00000001 g16
00818b7f g     O .bss	00000001 g70b
00818b80 g     O .bss	00000001 g105b
00814054 g     F .text	00000050 alt_ic_isr_register
00818b81 g     O .bss	00000001 g58
00804d84 g     F .text	00000034 fwrite
00818b82 g     O .bss	00000001 _cg77
00818b83 g     O .bss	00000001 _cg94
00818b84 g     O .bss	00000001 _cg57
00818b85 g     O .bss	00000001 g68
00818b86 g     O .bss	00000001 g25
00818b87 g     O .bss	00000001 g139_e11
00816d6c g       *ABS*	00000000 _edata
00813324 g     F .text	00000060 altera_avalon_uart_read_fd
00818b88 g     O .bss	00000001 PRE_g93
00818b89 g     O .bss	00000001 g142
00818dac g       *ABS*	00000000 _end
00818b8a g     O .bss	00000001 g11
0080d31c g     F .text	00000164 __fputwc
00800244 g       *ABS*	00000000 __ram_exceptions_end
00811e24 g     F .text	000000f0 altera_avalon_jtag_uart_ioctl
00818b8b g     O .bss	00000001 g65
00818b8c g     O .bss	00000001 g22
00818b8d g     O .bss	00000001 g19_e1
00818b8e g     O .bss	00000001 g28
00818b8f g     O .bss	00000001 g73
00802f58 g     F .text	00000094 UART_receiver
00818a5c g     O .bss	00000004 AEI_ex_flag
00818a68 g     O .bss	00000004 PVARP_ex_flag
00818b90 g     O .bss	00000001 g54b
00818a50 g     O .bss	00000004 VSense_flag
0081412c g     F .text	0000008c alt_ic_irq_disable
00818a60 g     O .bss	00000004 LRI_ex_flag
00805ba8 g     F .text	0000007c __swrite
00816d30 g     O .rwdata	00000004 __malloc_trim_threshold
0080a03c g     F .text	0000000c __locale_msgcharset
00814720 g     F .text	00000038 exit
00818b91 g     O .bss	00000001 g125
00804bf4 g     F .text	000000c4 _fwalk_reent
0080ad90 g     F .text	000001fc __mdiff
00818b92 g     O .bss	00000001 g77
00818b93 g     O .bss	00000001 g32
0080384c g     F .text	00000074 .hidden __modsi3
00816d68 g     O .rwdata	00000004 __ctype_ptr__
00818b94 g     O .bss	00000001 g88
00818b95 g     O .bss	00000001 g45
01000000 g       *ABS*	00000000 __alt_data_end
00800020 g     F .exceptions	00000000 alt_exception
0080408c g     F .text	00000004 __sfp_lock_release
00818b96 g     O .bss	00000001 PRE_g127
00800000 g       *ABS*	00000000 __alt_mem_sdram
00818b97 g     O .bss	00000001 _cg92
00818b98 g     O .bss	00000001 g130
00814e0e g     O .rodata	00000101 _ctype_
00818b99 g     O .bss	00000001 g49b
008137a8 g     F .text	00000054 altera_avalon_uart_close
00818b9a g     O .bss	00000001 init_var
008040c8 g     F .text	000000f4 _fopen_r
00814a6c g     F .text	00000034 _exit
0081097c g     F .text	0000012c alt_alarm_start
00818b9b g     O .bss	00000001 g121
00804db8 g     F .text	000001bc __smakebuf_r
00818b9c g     O .bss	00000001 VPace
00818b9d g     O .bss	00000001 g12b
0080bb78 g     F .text	00000098 strlen
00818b9e g     O .bss	00000001 g39
0081116c g     F .text	00000154 open
0080f530 g     F .text	000000dc .hidden __gedf2
00818b9f g     O .bss	00000001 _cg88
00818ba0 g     O .bss	00000001 _cg49
00818ba1 g     O .bss	00000001 g120
00816d38 g     O .rwdata	00000004 __wctomb
00818ba2 g     O .bss	00000001 g151_e2
0080bd0c g     F .text	00000018 __sprint_r
00814020 g     F .text	00000034 alt_icache_flush_all
00818ba3 g     O .bss	00000001 g29
00818ba4 g     O .bss	00000001 _cg4
00818ba5 g     O .bss	00000001 g67
00818ba6 g     O .bss	00000001 g24
00818ba7 g     O .bss	00000001 g133
00818ba8 g     O .bss	00000001 AEI_stop
00816d64 g     O .rwdata	00000004 alt_priority_mask
00818ba9 g     O .bss	00000001 g109
008140a4 g     F .text	00000088 alt_ic_irq_enable
00807e80 g     F .text	0000001c __vfprintf_internal
00813838 g     F .text	000001dc altera_avalon_uart_read
0080d808 g     F .text	0000005c _wctomb_r
00818baa g     O .bss	00000001 URI_start
0080fe18 g     F .text	000008fc .hidden __subdf3
00818bab g     O .bss	00000001 g149
00818bac g     O .bss	00000001 g106
00818bad g     O .bss	00000001 URI_stop
0080a7c4 g     F .text	000000b0 __lo0bits
00818bae g     O .bss	00000001 _cg31
00818baf g     O .bss	00000001 PRE_g135
00818bb0 g     O .bss	00000001 PRE_g132
00818bb1 g     O .bss	00000001 g10
00816d58 g     O .rwdata	00000008 alt_alarm_list
00818bb2 g     O .bss	00000001 _cg27
00813d24 g     F .text	00000060 _do_ctors
0080d718 g     F .text	000000c0 wcrtomb
00818bb3 g     O .bss	00000001 g69
00818bb4 g     O .bss	00000001 g26
00810ae4 g     F .text	000000d0 close
00818bb5 g     O .bss	00000001 g147_e1_fix_fix
00810e14 g     F .text	00000084 alt_load
00818bb6 g     O .bss	00000001 _cg72
00818bb7 g     O .bss	00000001 _cg39
0080d4a4 g     F .text	00000080 fputwc
00804090 g     F .text	00000004 __sinit_lock_acquire
00818bb8 g     O .bss	00000001 _cg105
0080a538 g     F .text	00000120 __multadd
0080a510 g     F .text	00000028 _Bfree
00818bb9 g     O .bss	00000001 g74



Disassembly of section .entry:

00800000 <__reset>:
#if NIOS2_ICACHE_SIZE > 0 && defined(ALT_ALLOW_CODE_AT_RESET) && (!defined(ALT_SIM_OPTIMIZE) || defined(NIOS2_ECC_PRESENT))
    /* Assume the instruction cache size is always a power of two. */
#if NIOS2_ICACHE_SIZE > 0x8000
    movhi r2, %hi(NIOS2_ICACHE_SIZE)
#else
    movui r2, NIOS2_ICACHE_SIZE
  800000:	00840014 	movui	r2,4096
#endif

0:
    initi r2
  800004:	1001483a 	initi	r2
    addi r2, r2, -NIOS2_ICACHE_LINE_SIZE
  800008:	10bff804 	addi	r2,r2,-32
    bgt r2, zero, 0b
  80000c:	00bffd16 	blt	zero,r2,800004 <__alt_mem_onchip_mem+0xff780004>
 * Jump to the _start entry point in the .text section if reset code
 * is allowed or if optimizing for RTL simulation.
 */
#if defined(ALT_ALLOW_CODE_AT_RESET) || defined(ALT_SIM_OPTIMIZE)
    /* Jump to the _start entry point in the .text section. */
    movhi r1, %hi(_start)
  800010:	00402034 	movhi	at,128
    ori r1, r1, %lo(_start)
  800014:	08409114 	ori	at,at,580
    jmp r1
  800018:	0800683a 	jmp	at
  80001c:	00000000 	call	0 <__alt_mem_sdram-0x800000>

Disassembly of section .exceptions:

00800020 <alt_exception>:

#else /* ALT_EXCEPTION_STACK disabled */
        /* 
         * Reserve space on normal stack for registers about to be pushed.
         */
        addi  sp, sp, -76
  800020:	deffed04 	addi	sp,sp,-76
         * documentation for details).
         *
         * Leave a gap in the stack frame at 4(sp) for the muldiv handler to
         * store zero into.
         */
        stw   ra,  0(sp)
  800024:	dfc00015 	stw	ra,0(sp)
        stw   r1,   8(sp)
  800028:	d8400215 	stw	at,8(sp)
        stw   r2,  12(sp)
  80002c:	d8800315 	stw	r2,12(sp)
        stw   r3,  16(sp)
  800030:	d8c00415 	stw	r3,16(sp)
        stw   r4,  20(sp)
  800034:	d9000515 	stw	r4,20(sp)
        stw   r5,  24(sp)
  800038:	d9400615 	stw	r5,24(sp)
        stw   r6,  28(sp)
  80003c:	d9800715 	stw	r6,28(sp)
        stw   r7,  32(sp)
  800040:	d9c00815 	stw	r7,32(sp)
        rdctl r5, estatus   /* Read early to avoid usage stall */
  800044:	000b307a 	rdctl	r5,estatus
        stw   r8,  36(sp)
  800048:	da000915 	stw	r8,36(sp)
        stw   r9,  40(sp)
  80004c:	da400a15 	stw	r9,40(sp)
        stw   r10, 44(sp)
  800050:	da800b15 	stw	r10,44(sp)
        stw   r11, 48(sp)
  800054:	dac00c15 	stw	r11,48(sp)
        stw   r12, 52(sp)
  800058:	db000d15 	stw	r12,52(sp)
        stw   r13, 56(sp)
  80005c:	db400e15 	stw	r13,56(sp)
        stw   r14, 60(sp)
  800060:	db800f15 	stw	r14,60(sp)
        stw   r15, 64(sp)
  800064:	dbc01015 	stw	r15,64(sp)
        /*
         * ea-4 contains the address of the instruction being executed
         * when the exception occured. For interrupt exceptions, we will
         * will be re-issue the isntruction. Store it in 72(sp)
         */
        stw   r5,  68(sp)  /* estatus */
  800068:	d9401115 	stw	r5,68(sp)
        addi  r15, ea, -4  /* instruction that caused exception */
  80006c:	ebffff04 	addi	r15,ea,-4
        stw   r15,  72(sp)
  800070:	dbc01215 	stw	r15,72(sp)
#else
        /*
         * Test to see if the exception was a software exception or caused 
         * by an external interrupt, and vector accordingly.
         */
        rdctl r4, ipending
  800074:	0009313a 	rdctl	r4,ipending
        andi  r2, r5, 1
  800078:	2880004c 	andi	r2,r5,1
        beq   r2, zero, .Lnot_irq
  80007c:	10000326 	beq	r2,zero,80008c <alt_exception+0x6c>
        beq   r4, zero, .Lnot_irq
  800080:	20000226 	beq	r4,zero,80008c <alt_exception+0x6c>
        /*
         * Now that all necessary registers have been preserved, call 
         * alt_irq_handler() to process the interrupts.
         */

        call alt_irq_handler
  800084:	08000fc0 	call	8000fc <alt_irq_handler>

        .section .exceptions.irqreturn, "xa"

        br    .Lexception_exit
  800088:	00000706 	br	8000a8 <alt_exception+0x88>
         * upon completion, so we write ea (address of instruction *after*
         * the one where the exception occured) into 72(sp). The actual
         * instruction that caused the exception is written in r2, which these
         * handlers will utilize.
         */
        stw ea, 72(sp) /* EA is PC+4 so will skip over instruction causing exception */
  80008c:	df401215 	stw	ea,72(sp)
.Lunknown_16bit:
        addi.n r4, r4, 2 /* Need PC+2 to skip over instruction causing exception */
        stw r4, 72(sp)

#else /* CDX is not Enabled and all instructions are 32bits */
        ldw r2, -4(ea) /* Instruction value that caused exception */
  800090:	e8bfff17 	ldw	r2,-4(ea)
         * debugger is present) or go into an infinite loop since the
         * handling behavior is undefined; in that case we will not return here.
         */

        /* Load exception-causing address as first argument (r4) */
        addi   r4, ea, -4
  800094:	e93fff04 	addi	r4,ea,-4

        /* Call the instruction-exception entry */
        call   alt_instruction_exception_entry
  800098:	08001d00 	call	8001d0 <alt_instruction_exception_entry>
         * instruction
         *
         * Return code was 0: Skip. The instruction after the exception is
         * already stored in 72(sp).
         */
        bne   r2, r0, .Lexception_exit
  80009c:	1000021e 	bne	r2,zero,8000a8 <alt_exception+0x88>

        /*
         * Otherwise, modify 72(sp) to re-issue the instruction that caused the
         * exception.
         */
        addi  r15, ea, -4  /* instruction that caused exception */
  8000a0:	ebffff04 	addi	r15,ea,-4
        stw   r15,  72(sp)
  8000a4:	dbc01215 	stw	r15,72(sp)
        /* 
         * Restore the saved registers, so that all general purpose registers 
         * have been restored to their state at the time the interrupt occured.
         */

        ldw   r5,  68(sp)
  8000a8:	d9401117 	ldw	r5,68(sp)
        ldw   ea,  72(sp)  /* This becomes the PC once eret is executed */
  8000ac:	df401217 	ldw	ea,72(sp)
        ldw   ra,   0(sp)
  8000b0:	dfc00017 	ldw	ra,0(sp)

        wrctl estatus, r5
  8000b4:	2801707a 	wrctl	estatus,r5

        ldw   r1,   8(sp)
  8000b8:	d8400217 	ldw	at,8(sp)
        ldw   r2,  12(sp)
  8000bc:	d8800317 	ldw	r2,12(sp)
        ldw   r3,  16(sp)
  8000c0:	d8c00417 	ldw	r3,16(sp)
        ldw   r4,  20(sp)
  8000c4:	d9000517 	ldw	r4,20(sp)
        ldw   r5,  24(sp)
  8000c8:	d9400617 	ldw	r5,24(sp)
        ldw   r6,  28(sp)
  8000cc:	d9800717 	ldw	r6,28(sp)
        ldw   r7,  32(sp)
  8000d0:	d9c00817 	ldw	r7,32(sp)

#if defined(ALT_EXCEPTION_STACK) && defined(ALT_STACK_CHECK)
        ldw   et, %gprel(alt_exception_old_stack_limit)(gp)
#endif

        ldw   r8,  36(sp)
  8000d4:	da000917 	ldw	r8,36(sp)
        ldw   r9,  40(sp)
  8000d8:	da400a17 	ldw	r9,40(sp)
        ldw   r10, 44(sp)
  8000dc:	da800b17 	ldw	r10,44(sp)
        ldw   r11, 48(sp)
  8000e0:	dac00c17 	ldw	r11,48(sp)
        ldw   r12, 52(sp)
  8000e4:	db000d17 	ldw	r12,52(sp)
        ldw   r13, 56(sp)
  8000e8:	db400e17 	ldw	r13,56(sp)
        ldw   r14, 60(sp)
  8000ec:	db800f17 	ldw	r14,60(sp)
        ldw   r15, 64(sp)
  8000f0:	dbc01017 	ldw	r15,64(sp)
        stw   et, %gprel(alt_stack_limit_value)(gp)
        stw   zero, %gprel(alt_exception_old_stack_limit)(gp)
#endif /* ALT_STACK_CHECK */
        ldw   sp,  76(sp)
#else /* ALT_EXCEPTION_STACK disabled */
        addi  sp, sp, 76
  8000f4:	dec01304 	addi	sp,sp,76

        /*
         * Return to the interrupted instruction.
         */

        eret
  8000f8:	ef80083a 	eret

008000fc <alt_irq_handler>:
 * instruction is present if the macro ALT_CI_INTERRUPT_VECTOR defined.
 */

void alt_irq_handler (void) __attribute__ ((section (".exceptions")));
void alt_irq_handler (void)
{
  8000fc:	defff904 	addi	sp,sp,-28
  800100:	dfc00615 	stw	ra,24(sp)
  800104:	df000515 	stw	fp,20(sp)
  800108:	df000504 	addi	fp,sp,20
  
  /*
   * Notify the operating system that we are at interrupt level.
   */ 
  
  ALT_OS_INT_ENTER();
  80010c:	0001883a 	nop
#ifndef NIOS2_EIC_PRESENT
static ALT_INLINE alt_u32 ALT_ALWAYS_INLINE alt_irq_pending (void)
{
  alt_u32 active;

  NIOS2_READ_IPENDING (active);
  800110:	0005313a 	rdctl	r2,ipending
  800114:	e0bffe15 	stw	r2,-8(fp)

  return active;
  800118:	e0bffe17 	ldw	r2,-8(fp)
   * Consider the case where the high priority interupt is asserted during
   * the interrupt entry sequence for a lower priority interrupt to see why
   * this is the case.
   */

  active = alt_irq_pending ();
  80011c:	e0bffb15 	stw	r2,-20(fp)

  do
  {
    i = 0;
  800120:	e03ffd15 	stw	zero,-12(fp)
    mask = 1;
  800124:	00800044 	movi	r2,1
  800128:	e0bffc15 	stw	r2,-16(fp)
     * called to clear the interrupt condition.
     */

    do
    {
      if (active & mask)
  80012c:	e0fffb17 	ldw	r3,-20(fp)
  800130:	e0bffc17 	ldw	r2,-16(fp)
  800134:	1884703a 	and	r2,r3,r2
  800138:	10001426 	beq	r2,zero,80018c <alt_irq_handler+0x90>
      { 
#ifdef ALT_ENHANCED_INTERRUPT_API_PRESENT
        alt_irq[i].handler(alt_irq[i].context); 
  80013c:	008020b4 	movhi	r2,130
  800140:	10a32b04 	addi	r2,r2,-29524
  800144:	e0fffd17 	ldw	r3,-12(fp)
  800148:	180690fa 	slli	r3,r3,3
  80014c:	10c5883a 	add	r2,r2,r3
  800150:	10c00017 	ldw	r3,0(r2)
  800154:	008020b4 	movhi	r2,130
  800158:	10a32b04 	addi	r2,r2,-29524
  80015c:	e13ffd17 	ldw	r4,-12(fp)
  800160:	200890fa 	slli	r4,r4,3
  800164:	1105883a 	add	r2,r2,r4
  800168:	10800104 	addi	r2,r2,4
  80016c:	10800017 	ldw	r2,0(r2)
  800170:	1009883a 	mov	r4,r2
  800174:	183ee83a 	callr	r3
#else
        alt_irq[i].handler(alt_irq[i].context, i); 
#endif
        break;
  800178:	0001883a 	nop
#ifndef NIOS2_EIC_PRESENT
static ALT_INLINE alt_u32 ALT_ALWAYS_INLINE alt_irq_pending (void)
{
  alt_u32 active;

  NIOS2_READ_IPENDING (active);
  80017c:	0005313a 	rdctl	r2,ipending
  800180:	e0bfff15 	stw	r2,-4(fp)

  return active;
  800184:	e0bfff17 	ldw	r2,-4(fp)
  800188:	00000706 	br	8001a8 <alt_irq_handler+0xac>
      }
      mask <<= 1;
  80018c:	e0bffc17 	ldw	r2,-16(fp)
  800190:	1085883a 	add	r2,r2,r2
  800194:	e0bffc15 	stw	r2,-16(fp)
      i++;
  800198:	e0bffd17 	ldw	r2,-12(fp)
  80019c:	10800044 	addi	r2,r2,1
  8001a0:	e0bffd15 	stw	r2,-12(fp)

    } while (1);
  8001a4:	003fe106 	br	80012c <__alt_mem_onchip_mem+0xff78012c>

    active = alt_irq_pending ();
  8001a8:	e0bffb15 	stw	r2,-20(fp)
    
  } while (active);
  8001ac:	e0bffb17 	ldw	r2,-20(fp)
  8001b0:	103fdb1e 	bne	r2,zero,800120 <__alt_mem_onchip_mem+0xff780120>

  /*
   * Notify the operating system that interrupt processing is complete.
   */ 

  ALT_OS_INT_EXIT();
  8001b4:	0001883a 	nop
}
  8001b8:	0001883a 	nop
  8001bc:	e037883a 	mov	sp,fp
  8001c0:	dfc00117 	ldw	ra,4(sp)
  8001c4:	df000017 	ldw	fp,0(sp)
  8001c8:	dec00204 	addi	sp,sp,8
  8001cc:	f800283a 	ret

008001d0 <alt_instruction_exception_entry>:
 * that handler if it has been registered. Absent a handler, it will
 * break break or hang as discussed below.
 */
int 
alt_instruction_exception_entry (alt_u32 exception_pc)
{
  8001d0:	defffb04 	addi	sp,sp,-20
  8001d4:	dfc00415 	stw	ra,16(sp)
  8001d8:	df000315 	stw	fp,12(sp)
  8001dc:	df000304 	addi	fp,sp,12
  8001e0:	e13fff15 	stw	r4,-4(fp)
 * NIOS2_EXCEPTION_CAUSE_NOT_PRESENT. Your handling routine should
 * check the validity of the cause argument before proceeding.
 */
#ifdef NIOS2_HAS_EXTRA_EXCEPTION_INFO
  /* Get exception cause & "badaddr" */
  NIOS2_READ_EXCEPTION(cause);
  8001e4:	000531fa 	rdctl	r2,exception
  8001e8:	e0bffd15 	stw	r2,-12(fp)
  cause = ( (cause & NIOS2_EXCEPTION_REG_CAUSE_MASK) >>
  8001ec:	e0bffd17 	ldw	r2,-12(fp)
  8001f0:	10801f0c 	andi	r2,r2,124
  8001f4:	1004d0ba 	srli	r2,r2,2
  8001f8:	e0bffd15 	stw	r2,-12(fp)
              NIOS2_EXCEPTION_REG_CAUSE_OFST );

  NIOS2_READ_BADADDR(badaddr);
  8001fc:	0005333a 	rdctl	r2,badaddr
  800200:	e0bffe15 	stw	r2,-8(fp)
#else
  cause = NIOS2_EXCEPTION_CAUSE_NOT_PRESENT;
  badaddr = 0;
#endif /* NIOS2_HAS_EXTRA_EXCEPTION_INFO */

  if(alt_instruction_exception_handler) {
  800204:	d0a7b417 	ldw	r2,-24880(gp)
  800208:	10000726 	beq	r2,zero,800228 <alt_instruction_exception_entry+0x58>
     * Call handler. Its return value indicates whether the exception-causing
     * instruction should be re-issued. The code that called us,
     * alt_eceptions_entry.S, will look at this value and adjust the ea
     * register as necessary
     */
    return alt_instruction_exception_handler(cause, exception_pc, badaddr);
  80020c:	d0a7b417 	ldw	r2,-24880(gp)
  800210:	e0fffd17 	ldw	r3,-12(fp)
  800214:	e1bffe17 	ldw	r6,-8(fp)
  800218:	e17fff17 	ldw	r5,-4(fp)
  80021c:	1809883a 	mov	r4,r3
  800220:	103ee83a 	callr	r2
  800224:	00000206 	br	800230 <alt_instruction_exception_entry+0x60>
   *    (a peripheral which negates its interrupt output before its
   *    interrupt handler has been executed will cause spurious interrupts)
   */
  else {
#ifdef NIOS2_HAS_DEBUG_STUB
    NIOS2_BREAK();
  800228:	003da03a 	break	0
      ;
#endif /* NIOS2_HAS_DEBUG_STUB */
  }

  /* We should not get here. Remove compiler warning. */
  return NIOS2_EXCEPTION_RETURN_REISSUE_INST;
  80022c:	0005883a 	mov	r2,zero
}
  800230:	e037883a 	mov	sp,fp
  800234:	dfc00117 	ldw	ra,4(sp)
  800238:	df000017 	ldw	fp,0(sp)
  80023c:	dec00204 	addi	sp,sp,8
  800240:	f800283a 	ret

Disassembly of section .text:

00800244 <_start>:

    /* Assume the data cache size is always a power of two. */
#if NIOS2_DCACHE_SIZE > 0x8000
    movhi r2, %hi(NIOS2_DCACHE_SIZE)
#else
    movui r2, NIOS2_DCACHE_SIZE
  800244:	00820014 	movui	r2,2048
#endif

0:
    initd 0(r2)
  800248:	10000033 	initd	0(r2)
#ifdef NIOS2_ECC_PRESENT
    addi r2, r2, -4
#else
    addi r2, r2, -NIOS2_DCACHE_LINE_SIZE
  80024c:	10bff804 	addi	r2,r2,-32
#endif
    bgt r2, zero, 0b
  800250:	00bffd16 	blt	zero,r2,800248 <__alt_mem_onchip_mem+0xff780248>

    /*
     * Now that the caches are initialized, set up the stack pointer and global pointer.
     * The values provided by the linker are assumed to be correctly aligned.
     */
    movhi sp, %hi(__alt_stack_pointer)
  800254:	06c04034 	movhi	sp,256
    ori sp, sp, %lo(__alt_stack_pointer)
  800258:	dec00014 	ori	sp,sp,0
    movhi gp, %hi(_gp)
  80025c:	06802074 	movhi	gp,129
    ori gp, gp, %lo(_gp)
  800260:	d6bb4814 	ori	gp,gp,60704
 */
#ifndef ALT_SIM_OPTIMIZE
    /* Log that the BSS is about to be cleared. */
    ALT_LOG_PUTS(alt_log_msg_bss)

    movhi r2, %hi(__bss_start)
  800264:	00802074 	movhi	r2,129
    ori r2, r2, %lo(__bss_start)
  800268:	10a29214 	ori	r2,r2,35400

    movhi r3, %hi(__bss_end)
  80026c:	00c02074 	movhi	r3,129
    ori r3, r3, %lo(__bss_end)
  800270:	18e36b14 	ori	r3,r3,36268

    beq r2, r3, 1f
  800274:	10c00326 	beq	r2,r3,800284 <_start+0x40>

0:
    stw zero, (r2)
  800278:	10000015 	stw	zero,0(r2)
    addi r2, r2, 4
  80027c:	10800104 	addi	r2,r2,4
    bltu r2, r3, 0b
  800280:	10fffd36 	bltu	r2,r3,800278 <__alt_mem_onchip_mem+0xff780278>
     * section aren't defined until alt_load() has been called).
     */
    mov   et, zero
#endif

    call alt_load
  800284:	0810e140 	call	810e14 <alt_load>

    /* Log that alt_main is about to be called. */
    ALT_LOG_PUTS(alt_log_msg_alt_main)

    /* Call the C entry point. It should never return. */
    call alt_main
  800288:	0810fa80 	call	810fa8 <alt_main>

0080028c <alt_after_alt_main>:

    /* Wait in infinite loop in case alt_main does return. */
alt_after_alt_main:
    br alt_after_alt_main
  80028c:	003fff06 	br	80028c <__alt_mem_onchip_mem+0xff78028c>

00800290 <reset>:
#include "mode1.h"
#include "sccharts.h"
#include "fcntl.h"

// SCCharts Functions VOID and TICK
void reset() {
  800290:	deffff04 	addi	sp,sp,-4
  800294:	df000015 	stw	fp,0(sp)
  800298:	d839883a 	mov	fp,sp
	_GO = 1;
  80029c:	00800044 	movi	r2,1
  8002a0:	d0a78385 	stb	r2,-25074(gp)
	_PRE_GO = 0;
  8002a4:	d0275c15 	stw	zero,-25232(gp)
	PRE_g3 = 0;
  8002a8:	d0275d45 	stb	zero,-25227(gp)
	PRE_g6 = 0;
  8002ac:	d0277e05 	stb	zero,-25096(gp)
	PRE_g8 = 0;
  8002b0:	d0276a85 	stb	zero,-25174(gp)
	PRE_g11 = 0;
  8002b4:	d0278405 	stb	zero,-25072(gp)
	PRE_g21 = 0;
  8002b8:	d0279745 	stb	zero,-24995(gp)
	PRE_g24 = 0;
  8002bc:	d0276585 	stb	zero,-25194(gp)
	PRE_g28 = 0;
  8002c0:	d0276485 	stb	zero,-25198(gp)
	PRE_g33 = 0;
  8002c4:	d0279405 	stb	zero,-25008(gp)
	PRE_g35 = 0;
  8002c8:	d0276e45 	stb	zero,-25159(gp)
	PRE_g46 = 0;
  8002cc:	d0277385 	stb	zero,-25138(gp)
	PRE_g48 = 0;
  8002d0:	d0278c45 	stb	zero,-25039(gp)
	PRE_g53 = 0;
  8002d4:	d0276c45 	stb	zero,-25167(gp)
	PRE_g55 = 0;
  8002d8:	d02773c5 	stb	zero,-25137(gp)
	PRE_g60 = 0;
  8002dc:	d0278a85 	stb	zero,-25046(gp)
	PRE_g63 = 0;
  8002e0:	d02758c5 	stb	zero,-25245(gp)
	PRE_g69 = 0;
  8002e4:	d0276545 	stb	zero,-25195(gp)
	PRE_g71 = 0;
  8002e8:	d0277a45 	stb	zero,-25111(gp)
	PRE_g76 = 0;
  8002ec:	d02793c5 	stb	zero,-25009(gp)
	PRE_g79 = 0;
  8002f0:	d0277ac5 	stb	zero,-25109(gp)
	PRE_g85 = 0;
  8002f4:	d0276a45 	stb	zero,-25175(gp)
	PRE_g93 = 0;
  8002f8:	d0279a05 	stb	zero,-24984(gp)
	PRE_g104 = 0;
  8002fc:	d0276c05 	stb	zero,-25168(gp)
	PRE_g106 = 0;
  800300:	d0278205 	stb	zero,-25080(gp)
	PRE_g111 = 0;
  800304:	d0277285 	stb	zero,-25142(gp)
	PRE_g114 = 0;
  800308:	d0275a85 	stb	zero,-25238(gp)
	PRE_g116 = 0;
  80030c:	d0277105 	stb	zero,-25148(gp)
	PRE_g125 = 0;
  800310:	d0278705 	stb	zero,-25060(gp)
	PRE_g127 = 0;
  800314:	d0279d85 	stb	zero,-24970(gp)
	PRE_g132 = 0;
  800318:	d027a405 	stb	zero,-24944(gp)
	PRE_g135 = 0;
  80031c:	d027a3c5 	stb	zero,-24945(gp)
	PRE_g141 = 0;
  800320:	d0276445 	stb	zero,-25199(gp)
	PRE_g143 = 0;
  800324:	d0277805 	stb	zero,-25120(gp)
	PRE_g149 = 0;
  800328:	d0275d05 	stb	zero,-25228(gp)
	return;
  80032c:	0001883a 	nop
}
  800330:	e037883a 	mov	sp,fp
  800334:	df000017 	ldw	fp,0(sp)
  800338:	dec00104 	addi	sp,sp,4
  80033c:	f800283a 	ret

00800340 <tick>:
void tick() {
  800340:	deffff04 	addi	sp,sp,-4
  800344:	df000015 	stw	fp,0(sp)
  800348:	d839883a 	mov	fp,sp
	if (_PRE_GO == 1) {
  80034c:	d0a75c17 	ldw	r2,-25232(gp)
  800350:	10800058 	cmpnei	r2,r2,1
  800354:	1000011e 	bne	r2,zero,80035c <tick+0x1c>
		_GO = 0;
  800358:	d0278385 	stb	zero,-25074(gp)
	}
	{
		g0 = _GO;
  80035c:	d0a78383 	ldbu	r2,-25074(gp)
  800360:	d0a79605 	stb	r2,-25000(gp)
		g1 = g0;
  800364:	d0a79603 	ldbu	r2,-25000(gp)
  800368:	d0a76305 	stb	r2,-25204(gp)
		g2 = g1;
  80036c:	d0a76303 	ldbu	r2,-25204(gp)
  800370:	d0a775c5 	stb	r2,-25129(gp)
		g150 = (PRE_g149);
  800374:	d0a75d03 	ldbu	r2,-25228(gp)
  800378:	d0a761c5 	stb	r2,-25209(gp)
		g148 = g0;
  80037c:	d0a79603 	ldbu	r2,-25000(gp)
  800380:	d0a76f45 	stb	r2,-25155(gp)
		g149 = (g150 || g148);
  800384:	d0a761c3 	ldbu	r2,-25209(gp)
  800388:	10803fcc 	andi	r2,r2,255
  80038c:	1080201c 	xori	r2,r2,128
  800390:	10bfe004 	addi	r2,r2,-128
  800394:	1000051e 	bne	r2,zero,8003ac <tick+0x6c>
  800398:	d0a76f43 	ldbu	r2,-25155(gp)
  80039c:	10803fcc 	andi	r2,r2,255
  8003a0:	1080201c 	xori	r2,r2,128
  8003a4:	10bfe004 	addi	r2,r2,-128
  8003a8:	10000226 	beq	r2,zero,8003b4 <tick+0x74>
  8003ac:	00800044 	movi	r2,1
  8003b0:	00000106 	br	8003b8 <tick+0x78>
  8003b4:	0005883a 	mov	r2,zero
  8003b8:	d0a7a2c5 	stb	r2,-24949(gp)
		if (g149) {
  8003bc:	d0a7a2c3 	ldbu	r2,-24949(gp)
  8003c0:	10803fcc 	andi	r2,r2,255
  8003c4:	1080201c 	xori	r2,r2,128
  8003c8:	10bfe004 	addi	r2,r2,-128
  8003cc:	10000e26 	beq	r2,zero,800408 <tick+0xc8>
			VPace = 0;
  8003d0:	d0279f05 	stb	zero,-24964(gp)
			APace = 0;
  8003d4:	d0275545 	stb	zero,-25259(gp)
			LRI_start = 0;
  8003d8:	d02783c5 	stb	zero,-25073(gp)
			LRI_stop = 0;
  8003dc:	d0276b05 	stb	zero,-25172(gp)
			URI_start = 0;
  8003e0:	d027a285 	stb	zero,-24950(gp)
			URI_stop = 0;
  8003e4:	d027a345 	stb	zero,-24947(gp)
			VRP_start = 0;
  8003e8:	d0278005 	stb	zero,-25088(gp)
			VRP_stop = 0;
  8003ec:	d0278885 	stb	zero,-25054(gp)
			AVI_start = 0;
  8003f0:	d0276085 	stb	zero,-25214(gp)
			AVI_stop = 0;
  8003f4:	d0276285 	stb	zero,-25206(gp)
			AEI_start = 0;
  8003f8:	d0278f45 	stb	zero,-25027(gp)
			AEI_stop = 0;
  8003fc:	d027a205 	stb	zero,-24952(gp)
			PVARP_start = 0;
  800400:	d02788c5 	stb	zero,-25053(gp)
			PVARP_stop = 0;
  800404:	d0278905 	stb	zero,-25052(gp)
		}
		g86 = (PRE_g85);
  800408:	d0a76a43 	ldbu	r2,-25175(gp)
  80040c:	d0a78685 	stb	r2,-25062(gp)
		_cg86 = URI_ex;
  800410:	d0a78103 	ldbu	r2,-25084(gp)
  800414:	d0a79105 	stb	r2,-25020(gp)
		g87 = (g86 && _cg86);
  800418:	d0a78683 	ldbu	r2,-25062(gp)
  80041c:	10803fcc 	andi	r2,r2,255
  800420:	1080201c 	xori	r2,r2,128
  800424:	10bfe004 	addi	r2,r2,-128
  800428:	10000726 	beq	r2,zero,800448 <tick+0x108>
  80042c:	d0a79103 	ldbu	r2,-25020(gp)
  800430:	10803fcc 	andi	r2,r2,255
  800434:	1080201c 	xori	r2,r2,128
  800438:	10bfe004 	addi	r2,r2,-128
  80043c:	10000226 	beq	r2,zero,800448 <tick+0x108>
  800440:	00800044 	movi	r2,1
  800444:	00000106 	br	80044c <tick+0x10c>
  800448:	0005883a 	mov	r2,zero
  80044c:	d0a76145 	stb	r2,-25211(gp)
		if (g87) {
  800450:	d0a76143 	ldbu	r2,-25211(gp)
  800454:	10803fcc 	andi	r2,r2,255
  800458:	1080201c 	xori	r2,r2,128
  80045c:	10bfe004 	addi	r2,r2,-128
  800460:	10000226 	beq	r2,zero,80046c <tick+0x12c>
			VPace = (VPace || 1);
  800464:	00800044 	movi	r2,1
  800468:	d0a79f05 	stb	r2,-24964(gp)
		}
		g94 = (PRE_g93);
  80046c:	d0a79a03 	ldbu	r2,-24984(gp)
  800470:	d0a774c5 	stb	r2,-25133(gp)
		_cg94 = AVI_ex;
  800474:	d0a77b03 	ldbu	r2,-25108(gp)
  800478:	d0a798c5 	stb	r2,-24989(gp)
		g95 = (g94 && _cg94);
  80047c:	d0a774c3 	ldbu	r2,-25133(gp)
  800480:	10803fcc 	andi	r2,r2,255
  800484:	1080201c 	xori	r2,r2,128
  800488:	10bfe004 	addi	r2,r2,-128
  80048c:	10000726 	beq	r2,zero,8004ac <tick+0x16c>
  800490:	d0a798c3 	ldbu	r2,-24989(gp)
  800494:	10803fcc 	andi	r2,r2,255
  800498:	1080201c 	xori	r2,r2,128
  80049c:	10bfe004 	addi	r2,r2,-128
  8004a0:	10000226 	beq	r2,zero,8004ac <tick+0x16c>
  8004a4:	00800044 	movi	r2,1
  8004a8:	00000106 	br	8004b0 <tick+0x170>
  8004ac:	0005883a 	mov	r2,zero
  8004b0:	d0a78945 	stb	r2,-25051(gp)
		if (g95) {
  8004b4:	d0a78943 	ldbu	r2,-25051(gp)
  8004b8:	10803fcc 	andi	r2,r2,255
  8004bc:	1080201c 	xori	r2,r2,128
  8004c0:	10bfe004 	addi	r2,r2,-128
  8004c4:	10000226 	beq	r2,zero,8004d0 <tick+0x190>
			VPace = (VPace || 1);
  8004c8:	00800044 	movi	r2,1
  8004cc:	d0a79f05 	stb	r2,-24964(gp)
		}
		g4 = (PRE_g3);
  8004d0:	d0a75d43 	ldbu	r2,-25227(gp)
  8004d4:	d0a755c5 	stb	r2,-25257(gp)
		_cg4 = VSense;
  8004d8:	d0a77dc3 	ldbu	r2,-25097(gp)
  8004dc:	d0a7a105 	stb	r2,-24956(gp)
		g17 = (g4 && (!(_cg4)));
  8004e0:	d0a755c3 	ldbu	r2,-25257(gp)
  8004e4:	10803fcc 	andi	r2,r2,255
  8004e8:	1080201c 	xori	r2,r2,128
  8004ec:	10bfe004 	addi	r2,r2,-128
  8004f0:	10000726 	beq	r2,zero,800510 <tick+0x1d0>
  8004f4:	d0a7a103 	ldbu	r2,-24956(gp)
  8004f8:	10803fcc 	andi	r2,r2,255
  8004fc:	1080201c 	xori	r2,r2,128
  800500:	10bfe004 	addi	r2,r2,-128
  800504:	1000021e 	bne	r2,zero,800510 <tick+0x1d0>
  800508:	00800044 	movi	r2,1
  80050c:	00000106 	br	800514 <tick+0x1d4>
  800510:	0005883a 	mov	r2,zero
  800514:	d0a76705 	stb	r2,-25188(gp)
		_cg17 = VPace;
  800518:	d0a79f03 	ldbu	r2,-24964(gp)
  80051c:	d0a79685 	stb	r2,-24998(gp)
		g3 = (g2 || (g17 && (!(_cg17))));
  800520:	d0a775c3 	ldbu	r2,-25129(gp)
  800524:	10803fcc 	andi	r2,r2,255
  800528:	1080201c 	xori	r2,r2,128
  80052c:	10bfe004 	addi	r2,r2,-128
  800530:	10000a1e 	bne	r2,zero,80055c <tick+0x21c>
  800534:	d0a76703 	ldbu	r2,-25188(gp)
  800538:	10803fcc 	andi	r2,r2,255
  80053c:	1080201c 	xori	r2,r2,128
  800540:	10bfe004 	addi	r2,r2,-128
  800544:	10000726 	beq	r2,zero,800564 <tick+0x224>
  800548:	d0a79683 	ldbu	r2,-24998(gp)
  80054c:	10803fcc 	andi	r2,r2,255
  800550:	1080201c 	xori	r2,r2,128
  800554:	10bfe004 	addi	r2,r2,-128
  800558:	1000021e 	bne	r2,zero,800564 <tick+0x224>
  80055c:	00800044 	movi	r2,1
  800560:	00000106 	br	800568 <tick+0x228>
  800564:	0005883a 	mov	r2,zero
  800568:	d0a75845 	stb	r2,-25247(gp)
		g5 = (g4 && _cg4);
  80056c:	d0a755c3 	ldbu	r2,-25257(gp)
  800570:	10803fcc 	andi	r2,r2,255
  800574:	1080201c 	xori	r2,r2,128
  800578:	10bfe004 	addi	r2,r2,-128
  80057c:	10000726 	beq	r2,zero,80059c <tick+0x25c>
  800580:	d0a7a103 	ldbu	r2,-24956(gp)
  800584:	10803fcc 	andi	r2,r2,255
  800588:	1080201c 	xori	r2,r2,128
  80058c:	10bfe004 	addi	r2,r2,-128
  800590:	10000226 	beq	r2,zero,80059c <tick+0x25c>
  800594:	00800044 	movi	r2,1
  800598:	00000106 	br	8005a0 <tick+0x260>
  80059c:	0005883a 	mov	r2,zero
  8005a0:	d0a77485 	stb	r2,-25134(gp)
		if (g5) {
  8005a4:	d0a77483 	ldbu	r2,-25134(gp)
  8005a8:	10803fcc 	andi	r2,r2,255
  8005ac:	1080201c 	xori	r2,r2,128
  8005b0:	10bfe004 	addi	r2,r2,-128
  8005b4:	10000226 	beq	r2,zero,8005c0 <tick+0x280>
			LRI_start = (LRI_start || 1);
  8005b8:	00800044 	movi	r2,1
  8005bc:	d0a783c5 	stb	r2,-25073(gp)
		}
		g7 = (PRE_g6);
  8005c0:	d0a77e03 	ldbu	r2,-25096(gp)
  8005c4:	d0a77605 	stb	r2,-25128(gp)
		_cg7 = VRP_ex;
  8005c8:	d0a77bc3 	ldbu	r2,-25105(gp)
  8005cc:	d0a75b45 	stb	r2,-25235(gp)
		g18 = (g17 && _cg17);
  8005d0:	d0a76703 	ldbu	r2,-25188(gp)
  8005d4:	10803fcc 	andi	r2,r2,255
  8005d8:	1080201c 	xori	r2,r2,128
  8005dc:	10bfe004 	addi	r2,r2,-128
  8005e0:	10000726 	beq	r2,zero,800600 <tick+0x2c0>
  8005e4:	d0a79683 	ldbu	r2,-24998(gp)
  8005e8:	10803fcc 	andi	r2,r2,255
  8005ec:	1080201c 	xori	r2,r2,128
  8005f0:	10bfe004 	addi	r2,r2,-128
  8005f4:	10000226 	beq	r2,zero,800600 <tick+0x2c0>
  8005f8:	00800044 	movi	r2,1
  8005fc:	00000106 	br	800604 <tick+0x2c4>
  800600:	0005883a 	mov	r2,zero
  800604:	d0a76b85 	stb	r2,-25170(gp)
		if (g18) {
  800608:	d0a76b83 	ldbu	r2,-25170(gp)
  80060c:	10803fcc 	andi	r2,r2,255
  800610:	1080201c 	xori	r2,r2,128
  800614:	10bfe004 	addi	r2,r2,-128
  800618:	10000226 	beq	r2,zero,800624 <tick+0x2e4>
			LRI_start = (LRI_start || 1);
  80061c:	00800044 	movi	r2,1
  800620:	d0a783c5 	stb	r2,-25073(gp)
		}
		g12 = (PRE_g11);
  800624:	d0a78403 	ldbu	r2,-25072(gp)
  800628:	d0a76605 	stb	r2,-25192(gp)
		g12b = g12;
  80062c:	d0a76603 	ldbu	r2,-25192(gp)
  800630:	d0a79f45 	stb	r2,-24963(gp)
		if (g12b) {
  800634:	d0a79f43 	ldbu	r2,-24963(gp)
  800638:	10803fcc 	andi	r2,r2,255
  80063c:	1080201c 	xori	r2,r2,128
  800640:	10bfe004 	addi	r2,r2,-128
  800644:	10000226 	beq	r2,zero,800650 <tick+0x310>
			LRI_start = (LRI_start || 1);
  800648:	00800044 	movi	r2,1
  80064c:	d0a783c5 	stb	r2,-25073(gp)
		}
		g6 = ((g7 && (!(_cg7))) || g18 || g5 || g12b);
  800650:	d0a77603 	ldbu	r2,-25128(gp)
  800654:	10803fcc 	andi	r2,r2,255
  800658:	1080201c 	xori	r2,r2,128
  80065c:	10bfe004 	addi	r2,r2,-128
  800660:	10000526 	beq	r2,zero,800678 <tick+0x338>
  800664:	d0a75b43 	ldbu	r2,-25235(gp)
  800668:	10803fcc 	andi	r2,r2,255
  80066c:	1080201c 	xori	r2,r2,128
  800670:	10bfe004 	addi	r2,r2,-128
  800674:	10000f26 	beq	r2,zero,8006b4 <tick+0x374>
  800678:	d0a76b83 	ldbu	r2,-25170(gp)
  80067c:	10803fcc 	andi	r2,r2,255
  800680:	1080201c 	xori	r2,r2,128
  800684:	10bfe004 	addi	r2,r2,-128
  800688:	10000a1e 	bne	r2,zero,8006b4 <tick+0x374>
  80068c:	d0a77483 	ldbu	r2,-25134(gp)
  800690:	10803fcc 	andi	r2,r2,255
  800694:	1080201c 	xori	r2,r2,128
  800698:	10bfe004 	addi	r2,r2,-128
  80069c:	1000051e 	bne	r2,zero,8006b4 <tick+0x374>
  8006a0:	d0a79f43 	ldbu	r2,-24963(gp)
  8006a4:	10803fcc 	andi	r2,r2,255
  8006a8:	1080201c 	xori	r2,r2,128
  8006ac:	10bfe004 	addi	r2,r2,-128
  8006b0:	10000226 	beq	r2,zero,8006bc <tick+0x37c>
  8006b4:	00800044 	movi	r2,1
  8006b8:	00000106 	br	8006c0 <tick+0x380>
  8006bc:	0005883a 	mov	r2,zero
  8006c0:	d0a79285 	stb	r2,-25014(gp)
		g9 = (PRE_g8);
  8006c4:	d0a76a83 	ldbu	r2,-25174(gp)
  8006c8:	d0a75ac5 	stb	r2,-25237(gp)
		_cg9 = VSense;
  8006cc:	d0a77dc3 	ldbu	r2,-25097(gp)
  8006d0:	d0a79545 	stb	r2,-25003(gp)
		g13 = (g9 && (!(_cg9)));
  8006d4:	d0a75ac3 	ldbu	r2,-25237(gp)
  8006d8:	10803fcc 	andi	r2,r2,255
  8006dc:	1080201c 	xori	r2,r2,128
  8006e0:	10bfe004 	addi	r2,r2,-128
  8006e4:	10000726 	beq	r2,zero,800704 <tick+0x3c4>
  8006e8:	d0a79543 	ldbu	r2,-25003(gp)
  8006ec:	10803fcc 	andi	r2,r2,255
  8006f0:	1080201c 	xori	r2,r2,128
  8006f4:	10bfe004 	addi	r2,r2,-128
  8006f8:	1000021e 	bne	r2,zero,800704 <tick+0x3c4>
  8006fc:	00800044 	movi	r2,1
  800700:	00000106 	br	800708 <tick+0x3c8>
  800704:	0005883a 	mov	r2,zero
  800708:	d0a78dc5 	stb	r2,-25033(gp)
		_cg13 = VPace;
  80070c:	d0a79f03 	ldbu	r2,-24964(gp)
  800710:	d0a79505 	stb	r2,-25004(gp)
		g15 = (g13 && (!(_cg13)));
  800714:	d0a78dc3 	ldbu	r2,-25033(gp)
  800718:	10803fcc 	andi	r2,r2,255
  80071c:	1080201c 	xori	r2,r2,128
  800720:	10bfe004 	addi	r2,r2,-128
  800724:	10000726 	beq	r2,zero,800744 <tick+0x404>
  800728:	d0a79503 	ldbu	r2,-25004(gp)
  80072c:	10803fcc 	andi	r2,r2,255
  800730:	1080201c 	xori	r2,r2,128
  800734:	10bfe004 	addi	r2,r2,-128
  800738:	1000021e 	bne	r2,zero,800744 <tick+0x404>
  80073c:	00800044 	movi	r2,1
  800740:	00000106 	br	800748 <tick+0x408>
  800744:	0005883a 	mov	r2,zero
  800748:	d0a78305 	stb	r2,-25076(gp)
		_cg15 = LRI_ex;
  80074c:	d0a77683 	ldbu	r2,-25126(gp)
  800750:	d0a760c5 	stb	r2,-25213(gp)
		g8 = ((g7 && _cg7) || (g15 && (!(_cg15))));
  800754:	d0a77603 	ldbu	r2,-25128(gp)
  800758:	10803fcc 	andi	r2,r2,255
  80075c:	1080201c 	xori	r2,r2,128
  800760:	10bfe004 	addi	r2,r2,-128
  800764:	10000526 	beq	r2,zero,80077c <tick+0x43c>
  800768:	d0a75b43 	ldbu	r2,-25235(gp)
  80076c:	10803fcc 	andi	r2,r2,255
  800770:	1080201c 	xori	r2,r2,128
  800774:	10bfe004 	addi	r2,r2,-128
  800778:	10000a1e 	bne	r2,zero,8007a4 <tick+0x464>
  80077c:	d0a78303 	ldbu	r2,-25076(gp)
  800780:	10803fcc 	andi	r2,r2,255
  800784:	1080201c 	xori	r2,r2,128
  800788:	10bfe004 	addi	r2,r2,-128
  80078c:	10000726 	beq	r2,zero,8007ac <tick+0x46c>
  800790:	d0a760c3 	ldbu	r2,-25213(gp)
  800794:	10803fcc 	andi	r2,r2,255
  800798:	1080201c 	xori	r2,r2,128
  80079c:	10bfe004 	addi	r2,r2,-128
  8007a0:	1000021e 	bne	r2,zero,8007ac <tick+0x46c>
  8007a4:	00800044 	movi	r2,1
  8007a8:	00000106 	br	8007b0 <tick+0x470>
  8007ac:	0005883a 	mov	r2,zero
  8007b0:	d0a78e85 	stb	r2,-25030(gp)
		g10 = (g9 && _cg9);
  8007b4:	d0a75ac3 	ldbu	r2,-25237(gp)
  8007b8:	10803fcc 	andi	r2,r2,255
  8007bc:	1080201c 	xori	r2,r2,128
  8007c0:	10bfe004 	addi	r2,r2,-128
  8007c4:	10000726 	beq	r2,zero,8007e4 <tick+0x4a4>
  8007c8:	d0a79543 	ldbu	r2,-25003(gp)
  8007cc:	10803fcc 	andi	r2,r2,255
  8007d0:	1080201c 	xori	r2,r2,128
  8007d4:	10bfe004 	addi	r2,r2,-128
  8007d8:	10000226 	beq	r2,zero,8007e4 <tick+0x4a4>
  8007dc:	00800044 	movi	r2,1
  8007e0:	00000106 	br	8007e8 <tick+0x4a8>
  8007e4:	0005883a 	mov	r2,zero
  8007e8:	d0a7a445 	stb	r2,-24943(gp)
		if (g10) {
  8007ec:	d0a7a443 	ldbu	r2,-24943(gp)
  8007f0:	10803fcc 	andi	r2,r2,255
  8007f4:	1080201c 	xori	r2,r2,128
  8007f8:	10bfe004 	addi	r2,r2,-128
  8007fc:	10000226 	beq	r2,zero,800808 <tick+0x4c8>
			LRI_stop = (LRI_stop || 1);
  800800:	00800044 	movi	r2,1
  800804:	d0a76b05 	stb	r2,-25172(gp)
		}
		g14 = (g13 && _cg13);
  800808:	d0a78dc3 	ldbu	r2,-25033(gp)
  80080c:	10803fcc 	andi	r2,r2,255
  800810:	1080201c 	xori	r2,r2,128
  800814:	10bfe004 	addi	r2,r2,-128
  800818:	10000726 	beq	r2,zero,800838 <tick+0x4f8>
  80081c:	d0a79503 	ldbu	r2,-25004(gp)
  800820:	10803fcc 	andi	r2,r2,255
  800824:	1080201c 	xori	r2,r2,128
  800828:	10bfe004 	addi	r2,r2,-128
  80082c:	10000226 	beq	r2,zero,800838 <tick+0x4f8>
  800830:	00800044 	movi	r2,1
  800834:	00000106 	br	80083c <tick+0x4fc>
  800838:	0005883a 	mov	r2,zero
  80083c:	d0a77a85 	stb	r2,-25110(gp)
		if (g14) {
  800840:	d0a77a83 	ldbu	r2,-25110(gp)
  800844:	10803fcc 	andi	r2,r2,255
  800848:	1080201c 	xori	r2,r2,128
  80084c:	10bfe004 	addi	r2,r2,-128
  800850:	10000226 	beq	r2,zero,80085c <tick+0x51c>
			LRI_stop = (LRI_stop || 1);
  800854:	00800044 	movi	r2,1
  800858:	d0a76b05 	stb	r2,-25172(gp)
		}
		g16 = (g15 && _cg15);
  80085c:	d0a78303 	ldbu	r2,-25076(gp)
  800860:	10803fcc 	andi	r2,r2,255
  800864:	1080201c 	xori	r2,r2,128
  800868:	10bfe004 	addi	r2,r2,-128
  80086c:	10000726 	beq	r2,zero,80088c <tick+0x54c>
  800870:	d0a760c3 	ldbu	r2,-25213(gp)
  800874:	10803fcc 	andi	r2,r2,255
  800878:	1080201c 	xori	r2,r2,128
  80087c:	10bfe004 	addi	r2,r2,-128
  800880:	10000226 	beq	r2,zero,80088c <tick+0x54c>
  800884:	00800044 	movi	r2,1
  800888:	00000106 	br	800890 <tick+0x550>
  80088c:	0005883a 	mov	r2,zero
  800890:	d0a79785 	stb	r2,-24994(gp)
		if (g16) {
  800894:	d0a79783 	ldbu	r2,-24994(gp)
  800898:	10803fcc 	andi	r2,r2,255
  80089c:	1080201c 	xori	r2,r2,128
  8008a0:	10bfe004 	addi	r2,r2,-128
  8008a4:	10000226 	beq	r2,zero,8008b0 <tick+0x570>
			VPace = (VPace || 1);
  8008a8:	00800044 	movi	r2,1
  8008ac:	d0a79f05 	stb	r2,-24964(gp)
		}
		g11 = (g14 || g16 || g10);
  8008b0:	d0a77a83 	ldbu	r2,-25110(gp)
  8008b4:	10803fcc 	andi	r2,r2,255
  8008b8:	1080201c 	xori	r2,r2,128
  8008bc:	10bfe004 	addi	r2,r2,-128
  8008c0:	10000a1e 	bne	r2,zero,8008ec <tick+0x5ac>
  8008c4:	d0a79783 	ldbu	r2,-24994(gp)
  8008c8:	10803fcc 	andi	r2,r2,255
  8008cc:	1080201c 	xori	r2,r2,128
  8008d0:	10bfe004 	addi	r2,r2,-128
  8008d4:	1000051e 	bne	r2,zero,8008ec <tick+0x5ac>
  8008d8:	d0a7a443 	ldbu	r2,-24943(gp)
  8008dc:	10803fcc 	andi	r2,r2,255
  8008e0:	1080201c 	xori	r2,r2,128
  8008e4:	10bfe004 	addi	r2,r2,-128
  8008e8:	10000226 	beq	r2,zero,8008f4 <tick+0x5b4>
  8008ec:	00800044 	movi	r2,1
  8008f0:	00000106 	br	8008f8 <tick+0x5b8>
  8008f4:	0005883a 	mov	r2,zero
  8008f8:	d0a79a85 	stb	r2,-24982(gp)
		g20 = g1;
  8008fc:	d0a76303 	ldbu	r2,-25204(gp)
  800900:	d0a78485 	stb	r2,-25070(gp)
		g22 = (PRE_g21);
  800904:	d0a79743 	ldbu	r2,-24995(gp)
  800908:	d0a79b05 	stb	r2,-24980(gp)
		_cg22 = VSense;
  80090c:	d0a77dc3 	ldbu	r2,-25097(gp)
  800910:	d0a78585 	stb	r2,-25066(gp)
		g42 = (g22 && (!(_cg22)));
  800914:	d0a79b03 	ldbu	r2,-24980(gp)
  800918:	10803fcc 	andi	r2,r2,255
  80091c:	1080201c 	xori	r2,r2,128
  800920:	10bfe004 	addi	r2,r2,-128
  800924:	10000726 	beq	r2,zero,800944 <tick+0x604>
  800928:	d0a78583 	ldbu	r2,-25066(gp)
  80092c:	10803fcc 	andi	r2,r2,255
  800930:	1080201c 	xori	r2,r2,128
  800934:	10bfe004 	addi	r2,r2,-128
  800938:	1000021e 	bne	r2,zero,800944 <tick+0x604>
  80093c:	00800044 	movi	r2,1
  800940:	00000106 	br	800948 <tick+0x608>
  800944:	0005883a 	mov	r2,zero
  800948:	d0a75a05 	stb	r2,-25240(gp)
		_cg42 = VPace;
  80094c:	d0a79f03 	ldbu	r2,-24964(gp)
  800950:	d0a75405 	stb	r2,-25264(gp)
		g25 = (PRE_g24);
  800954:	d0a76583 	ldbu	r2,-25194(gp)
  800958:	d0a79985 	stb	r2,-24986(gp)
		_cg25 = URI_ex;
  80095c:	d0a78103 	ldbu	r2,-25084(gp)
  800960:	d0a78145 	stb	r2,-25083(gp)
		g26 = (g25 && _cg25);
  800964:	d0a79983 	ldbu	r2,-24986(gp)
  800968:	10803fcc 	andi	r2,r2,255
  80096c:	1080201c 	xori	r2,r2,128
  800970:	10bfe004 	addi	r2,r2,-128
  800974:	10000726 	beq	r2,zero,800994 <tick+0x654>
  800978:	d0a78143 	ldbu	r2,-25083(gp)
  80097c:	10803fcc 	andi	r2,r2,255
  800980:	1080201c 	xori	r2,r2,128
  800984:	10bfe004 	addi	r2,r2,-128
  800988:	10000226 	beq	r2,zero,800994 <tick+0x654>
  80098c:	00800044 	movi	r2,1
  800990:	00000106 	br	800998 <tick+0x658>
  800994:	0005883a 	mov	r2,zero
  800998:	d0a7a505 	stb	r2,-24940(gp)
		if (g26) {
  80099c:	d0a7a503 	ldbu	r2,-24940(gp)
  8009a0:	10803fcc 	andi	r2,r2,255
  8009a4:	1080201c 	xori	r2,r2,128
  8009a8:	10bfe004 	addi	r2,r2,-128
  8009ac:	10000226 	beq	r2,zero,8009b8 <tick+0x678>
			URI_stop = (URI_stop || 1);
  8009b0:	00800044 	movi	r2,1
  8009b4:	d0a7a345 	stb	r2,-24947(gp)
		}
		g29 = (PRE_g28);
  8009b8:	d0a76483 	ldbu	r2,-25198(gp)
  8009bc:	d0a7a0c5 	stb	r2,-24957(gp)
		_cg29 = URI_ex;
  8009c0:	d0a78103 	ldbu	r2,-25084(gp)
  8009c4:	d0a781c5 	stb	r2,-25081(gp)
		g30 = (g29 && _cg29);
  8009c8:	d0a7a0c3 	ldbu	r2,-24957(gp)
  8009cc:	10803fcc 	andi	r2,r2,255
  8009d0:	1080201c 	xori	r2,r2,128
  8009d4:	10bfe004 	addi	r2,r2,-128
  8009d8:	10000726 	beq	r2,zero,8009f8 <tick+0x6b8>
  8009dc:	d0a781c3 	ldbu	r2,-25081(gp)
  8009e0:	10803fcc 	andi	r2,r2,255
  8009e4:	1080201c 	xori	r2,r2,128
  8009e8:	10bfe004 	addi	r2,r2,-128
  8009ec:	10000226 	beq	r2,zero,8009f8 <tick+0x6b8>
  8009f0:	00800044 	movi	r2,1
  8009f4:	00000106 	br	8009fc <tick+0x6bc>
  8009f8:	0005883a 	mov	r2,zero
  8009fc:	d0a79705 	stb	r2,-24996(gp)
		if (g30) {
  800a00:	d0a79703 	ldbu	r2,-24996(gp)
  800a04:	10803fcc 	andi	r2,r2,255
  800a08:	1080201c 	xori	r2,r2,128
  800a0c:	10bfe004 	addi	r2,r2,-128
  800a10:	10000226 	beq	r2,zero,800a1c <tick+0x6dc>
			URI_stop = (URI_stop || 1);
  800a14:	00800044 	movi	r2,1
  800a18:	d0a7a345 	stb	r2,-24947(gp)
		}
		g34 = (PRE_g33);
  800a1c:	d0a79403 	ldbu	r2,-25008(gp)
  800a20:	d0a77445 	stb	r2,-25135(gp)
		_cg34 = VSense;
  800a24:	d0a77dc3 	ldbu	r2,-25097(gp)
  800a28:	d0a76b45 	stb	r2,-25171(gp)
		g37 = (g34 && (!(_cg34)));
  800a2c:	d0a77443 	ldbu	r2,-25135(gp)
  800a30:	10803fcc 	andi	r2,r2,255
  800a34:	1080201c 	xori	r2,r2,128
  800a38:	10bfe004 	addi	r2,r2,-128
  800a3c:	10000726 	beq	r2,zero,800a5c <tick+0x71c>
  800a40:	d0a76b43 	ldbu	r2,-25171(gp)
  800a44:	10803fcc 	andi	r2,r2,255
  800a48:	1080201c 	xori	r2,r2,128
  800a4c:	10bfe004 	addi	r2,r2,-128
  800a50:	1000021e 	bne	r2,zero,800a5c <tick+0x71c>
  800a54:	00800044 	movi	r2,1
  800a58:	00000106 	br	800a60 <tick+0x720>
  800a5c:	0005883a 	mov	r2,zero
  800a60:	d0a76845 	stb	r2,-25183(gp)
		_cg37 = URI_ex;
  800a64:	d0a78103 	ldbu	r2,-25084(gp)
  800a68:	d0a78b45 	stb	r2,-25043(gp)
		g38 = (g37 && _cg37);
  800a6c:	d0a76843 	ldbu	r2,-25183(gp)
  800a70:	10803fcc 	andi	r2,r2,255
  800a74:	1080201c 	xori	r2,r2,128
  800a78:	10bfe004 	addi	r2,r2,-128
  800a7c:	10000726 	beq	r2,zero,800a9c <tick+0x75c>
  800a80:	d0a78b43 	ldbu	r2,-25043(gp)
  800a84:	10803fcc 	andi	r2,r2,255
  800a88:	1080201c 	xori	r2,r2,128
  800a8c:	10bfe004 	addi	r2,r2,-128
  800a90:	10000226 	beq	r2,zero,800a9c <tick+0x75c>
  800a94:	00800044 	movi	r2,1
  800a98:	00000106 	br	800aa0 <tick+0x760>
  800a9c:	0005883a 	mov	r2,zero
  800aa0:	d0a76f05 	stb	r2,-25156(gp)
		if (g38) {
  800aa4:	d0a76f03 	ldbu	r2,-25156(gp)
  800aa8:	10803fcc 	andi	r2,r2,255
  800aac:	1080201c 	xori	r2,r2,128
  800ab0:	10bfe004 	addi	r2,r2,-128
  800ab4:	10000226 	beq	r2,zero,800ac0 <tick+0x780>
			URI_stop = (URI_stop || 1);
  800ab8:	00800044 	movi	r2,1
  800abc:	d0a7a345 	stb	r2,-24947(gp)
		}
		g21 = (g20 || (g42 && (!(_cg42))) || g26 || g30 || g38);
  800ac0:	d0a78483 	ldbu	r2,-25070(gp)
  800ac4:	10803fcc 	andi	r2,r2,255
  800ac8:	1080201c 	xori	r2,r2,128
  800acc:	10bfe004 	addi	r2,r2,-128
  800ad0:	1000191e 	bne	r2,zero,800b38 <tick+0x7f8>
  800ad4:	d0a75a03 	ldbu	r2,-25240(gp)
  800ad8:	10803fcc 	andi	r2,r2,255
  800adc:	1080201c 	xori	r2,r2,128
  800ae0:	10bfe004 	addi	r2,r2,-128
  800ae4:	10000526 	beq	r2,zero,800afc <tick+0x7bc>
  800ae8:	d0a75403 	ldbu	r2,-25264(gp)
  800aec:	10803fcc 	andi	r2,r2,255
  800af0:	1080201c 	xori	r2,r2,128
  800af4:	10bfe004 	addi	r2,r2,-128
  800af8:	10000f26 	beq	r2,zero,800b38 <tick+0x7f8>
  800afc:	d0a7a503 	ldbu	r2,-24940(gp)
  800b00:	10803fcc 	andi	r2,r2,255
  800b04:	1080201c 	xori	r2,r2,128
  800b08:	10bfe004 	addi	r2,r2,-128
  800b0c:	10000a1e 	bne	r2,zero,800b38 <tick+0x7f8>
  800b10:	d0a79703 	ldbu	r2,-24996(gp)
  800b14:	10803fcc 	andi	r2,r2,255
  800b18:	1080201c 	xori	r2,r2,128
  800b1c:	10bfe004 	addi	r2,r2,-128
  800b20:	1000051e 	bne	r2,zero,800b38 <tick+0x7f8>
  800b24:	d0a76f03 	ldbu	r2,-25156(gp)
  800b28:	10803fcc 	andi	r2,r2,255
  800b2c:	1080201c 	xori	r2,r2,128
  800b30:	10bfe004 	addi	r2,r2,-128
  800b34:	10000226 	beq	r2,zero,800b40 <tick+0x800>
  800b38:	00800044 	movi	r2,1
  800b3c:	00000106 	br	800b44 <tick+0x804>
  800b40:	0005883a 	mov	r2,zero
  800b44:	d0a77305 	stb	r2,-25140(gp)
		g23 = (g22 && _cg22);
  800b48:	d0a79b03 	ldbu	r2,-24980(gp)
  800b4c:	10803fcc 	andi	r2,r2,255
  800b50:	1080201c 	xori	r2,r2,128
  800b54:	10bfe004 	addi	r2,r2,-128
  800b58:	10000726 	beq	r2,zero,800b78 <tick+0x838>
  800b5c:	d0a78583 	ldbu	r2,-25066(gp)
  800b60:	10803fcc 	andi	r2,r2,255
  800b64:	1080201c 	xori	r2,r2,128
  800b68:	10bfe004 	addi	r2,r2,-128
  800b6c:	10000226 	beq	r2,zero,800b78 <tick+0x838>
  800b70:	00800044 	movi	r2,1
  800b74:	00000106 	br	800b7c <tick+0x83c>
  800b78:	0005883a 	mov	r2,zero
  800b7c:	d0a779c5 	stb	r2,-25113(gp)
		if (g23) {
  800b80:	d0a779c3 	ldbu	r2,-25113(gp)
  800b84:	10803fcc 	andi	r2,r2,255
  800b88:	1080201c 	xori	r2,r2,128
  800b8c:	10bfe004 	addi	r2,r2,-128
  800b90:	10000226 	beq	r2,zero,800b9c <tick+0x85c>
			URI_start = (URI_start || 1);
  800b94:	00800044 	movi	r2,1
  800b98:	d0a7a285 	stb	r2,-24950(gp)
		}
		g27 = (g25 && (!(_cg25)));
  800b9c:	d0a79983 	ldbu	r2,-24986(gp)
  800ba0:	10803fcc 	andi	r2,r2,255
  800ba4:	1080201c 	xori	r2,r2,128
  800ba8:	10bfe004 	addi	r2,r2,-128
  800bac:	10000726 	beq	r2,zero,800bcc <tick+0x88c>
  800bb0:	d0a78143 	ldbu	r2,-25083(gp)
  800bb4:	10803fcc 	andi	r2,r2,255
  800bb8:	1080201c 	xori	r2,r2,128
  800bbc:	10bfe004 	addi	r2,r2,-128
  800bc0:	1000021e 	bne	r2,zero,800bcc <tick+0x88c>
  800bc4:	00800044 	movi	r2,1
  800bc8:	00000106 	br	800bd0 <tick+0x890>
  800bcc:	0005883a 	mov	r2,zero
  800bd0:	d0a757c5 	stb	r2,-25249(gp)
		_cg27 = PVARP_ex;
  800bd4:	d0a79383 	ldbu	r2,-25010(gp)
  800bd8:	d0a7a485 	stb	r2,-24942(gp)
		g41 = (g27 && (!(_cg27)));
  800bdc:	d0a757c3 	ldbu	r2,-25249(gp)
  800be0:	10803fcc 	andi	r2,r2,255
  800be4:	1080201c 	xori	r2,r2,128
  800be8:	10bfe004 	addi	r2,r2,-128
  800bec:	10000726 	beq	r2,zero,800c0c <tick+0x8cc>
  800bf0:	d0a7a483 	ldbu	r2,-24942(gp)
  800bf4:	10803fcc 	andi	r2,r2,255
  800bf8:	1080201c 	xori	r2,r2,128
  800bfc:	10bfe004 	addi	r2,r2,-128
  800c00:	1000021e 	bne	r2,zero,800c0c <tick+0x8cc>
  800c04:	00800044 	movi	r2,1
  800c08:	00000106 	br	800c10 <tick+0x8d0>
  800c0c:	0005883a 	mov	r2,zero
  800c10:	d0a76905 	stb	r2,-25180(gp)
		_cg41 = VRP_ex;
  800c14:	d0a77bc3 	ldbu	r2,-25105(gp)
  800c18:	d0a78cc5 	stb	r2,-25037(gp)
		g43 = (g42 && _cg42);
  800c1c:	d0a75a03 	ldbu	r2,-25240(gp)
  800c20:	10803fcc 	andi	r2,r2,255
  800c24:	1080201c 	xori	r2,r2,128
  800c28:	10bfe004 	addi	r2,r2,-128
  800c2c:	10000726 	beq	r2,zero,800c4c <tick+0x90c>
  800c30:	d0a75403 	ldbu	r2,-25264(gp)
  800c34:	10803fcc 	andi	r2,r2,255
  800c38:	1080201c 	xori	r2,r2,128
  800c3c:	10bfe004 	addi	r2,r2,-128
  800c40:	10000226 	beq	r2,zero,800c4c <tick+0x90c>
  800c44:	00800044 	movi	r2,1
  800c48:	00000106 	br	800c50 <tick+0x910>
  800c4c:	0005883a 	mov	r2,zero
  800c50:	d0a786c5 	stb	r2,-25061(gp)
		if (g43) {
  800c54:	d0a786c3 	ldbu	r2,-25061(gp)
  800c58:	10803fcc 	andi	r2,r2,255
  800c5c:	1080201c 	xori	r2,r2,128
  800c60:	10bfe004 	addi	r2,r2,-128
  800c64:	10000226 	beq	r2,zero,800c70 <tick+0x930>
			URI_start = (URI_start || 1);
  800c68:	00800044 	movi	r2,1
  800c6c:	d0a7a285 	stb	r2,-24950(gp)
		}
		g36 = (PRE_g35);
  800c70:	d0a76e43 	ldbu	r2,-25159(gp)
  800c74:	d0a78785 	stb	r2,-25058(gp)
		g36b = g36;
  800c78:	d0a78783 	ldbu	r2,-25058(gp)
  800c7c:	d0a791c5 	stb	r2,-25017(gp)
		if (g36b) {
  800c80:	d0a791c3 	ldbu	r2,-25017(gp)
  800c84:	10803fcc 	andi	r2,r2,255
  800c88:	1080201c 	xori	r2,r2,128
  800c8c:	10bfe004 	addi	r2,r2,-128
  800c90:	10000226 	beq	r2,zero,800c9c <tick+0x95c>
			URI_start = (URI_start || 1);
  800c94:	00800044 	movi	r2,1
  800c98:	d0a7a285 	stb	r2,-24950(gp)
		}
		g24 = (g23 || (g41 && (!(_cg41))) || g43 || g36b);
  800c9c:	d0a779c3 	ldbu	r2,-25113(gp)
  800ca0:	10803fcc 	andi	r2,r2,255
  800ca4:	1080201c 	xori	r2,r2,128
  800ca8:	10bfe004 	addi	r2,r2,-128
  800cac:	1000141e 	bne	r2,zero,800d00 <tick+0x9c0>
  800cb0:	d0a76903 	ldbu	r2,-25180(gp)
  800cb4:	10803fcc 	andi	r2,r2,255
  800cb8:	1080201c 	xori	r2,r2,128
  800cbc:	10bfe004 	addi	r2,r2,-128
  800cc0:	10000526 	beq	r2,zero,800cd8 <tick+0x998>
  800cc4:	d0a78cc3 	ldbu	r2,-25037(gp)
  800cc8:	10803fcc 	andi	r2,r2,255
  800ccc:	1080201c 	xori	r2,r2,128
  800cd0:	10bfe004 	addi	r2,r2,-128
  800cd4:	10000a26 	beq	r2,zero,800d00 <tick+0x9c0>
  800cd8:	d0a786c3 	ldbu	r2,-25061(gp)
  800cdc:	10803fcc 	andi	r2,r2,255
  800ce0:	1080201c 	xori	r2,r2,128
  800ce4:	10bfe004 	addi	r2,r2,-128
  800ce8:	1000051e 	bne	r2,zero,800d00 <tick+0x9c0>
  800cec:	d0a791c3 	ldbu	r2,-25017(gp)
  800cf0:	10803fcc 	andi	r2,r2,255
  800cf4:	1080201c 	xori	r2,r2,128
  800cf8:	10bfe004 	addi	r2,r2,-128
  800cfc:	10000226 	beq	r2,zero,800d08 <tick+0x9c8>
  800d00:	00800044 	movi	r2,1
  800d04:	00000106 	br	800d0c <tick+0x9cc>
  800d08:	0005883a 	mov	r2,zero
  800d0c:	d0a7a185 	stb	r2,-24954(gp)
		g31 = (g29 && (!(_cg29)));
  800d10:	d0a7a0c3 	ldbu	r2,-24957(gp)
  800d14:	10803fcc 	andi	r2,r2,255
  800d18:	1080201c 	xori	r2,r2,128
  800d1c:	10bfe004 	addi	r2,r2,-128
  800d20:	10000726 	beq	r2,zero,800d40 <tick+0xa00>
  800d24:	d0a781c3 	ldbu	r2,-25081(gp)
  800d28:	10803fcc 	andi	r2,r2,255
  800d2c:	1080201c 	xori	r2,r2,128
  800d30:	10bfe004 	addi	r2,r2,-128
  800d34:	1000021e 	bne	r2,zero,800d40 <tick+0xa00>
  800d38:	00800044 	movi	r2,1
  800d3c:	00000106 	br	800d44 <tick+0xa04>
  800d40:	0005883a 	mov	r2,zero
  800d44:	d0a76805 	stb	r2,-25184(gp)
		_cg31 = VRP_ex;
  800d48:	d0a77bc3 	ldbu	r2,-25105(gp)
  800d4c:	d0a7a385 	stb	r2,-24946(gp)
		g39 = (g31 && (!(_cg31)));
  800d50:	d0a76803 	ldbu	r2,-25184(gp)
  800d54:	10803fcc 	andi	r2,r2,255
  800d58:	1080201c 	xori	r2,r2,128
  800d5c:	10bfe004 	addi	r2,r2,-128
  800d60:	10000726 	beq	r2,zero,800d80 <tick+0xa40>
  800d64:	d0a7a383 	ldbu	r2,-24946(gp)
  800d68:	10803fcc 	andi	r2,r2,255
  800d6c:	1080201c 	xori	r2,r2,128
  800d70:	10bfe004 	addi	r2,r2,-128
  800d74:	1000021e 	bne	r2,zero,800d80 <tick+0xa40>
  800d78:	00800044 	movi	r2,1
  800d7c:	00000106 	br	800d84 <tick+0xa44>
  800d80:	0005883a 	mov	r2,zero
  800d84:	d0a79f85 	stb	r2,-24962(gp)
		_cg39 = PVARP_ex;
  800d88:	d0a79383 	ldbu	r2,-25010(gp)
  800d8c:	d0a7a5c5 	stb	r2,-24937(gp)
		g28 = ((g27 && _cg27) || (g39 && (!(_cg39))) || (g41 && _cg41));
  800d90:	d0a757c3 	ldbu	r2,-25249(gp)
  800d94:	10803fcc 	andi	r2,r2,255
  800d98:	1080201c 	xori	r2,r2,128
  800d9c:	10bfe004 	addi	r2,r2,-128
  800da0:	10000526 	beq	r2,zero,800db8 <tick+0xa78>
  800da4:	d0a7a483 	ldbu	r2,-24942(gp)
  800da8:	10803fcc 	andi	r2,r2,255
  800dac:	1080201c 	xori	r2,r2,128
  800db0:	10bfe004 	addi	r2,r2,-128
  800db4:	1000141e 	bne	r2,zero,800e08 <tick+0xac8>
  800db8:	d0a79f83 	ldbu	r2,-24962(gp)
  800dbc:	10803fcc 	andi	r2,r2,255
  800dc0:	1080201c 	xori	r2,r2,128
  800dc4:	10bfe004 	addi	r2,r2,-128
  800dc8:	10000526 	beq	r2,zero,800de0 <tick+0xaa0>
  800dcc:	d0a7a5c3 	ldbu	r2,-24937(gp)
  800dd0:	10803fcc 	andi	r2,r2,255
  800dd4:	1080201c 	xori	r2,r2,128
  800dd8:	10bfe004 	addi	r2,r2,-128
  800ddc:	10000a26 	beq	r2,zero,800e08 <tick+0xac8>
  800de0:	d0a76903 	ldbu	r2,-25180(gp)
  800de4:	10803fcc 	andi	r2,r2,255
  800de8:	1080201c 	xori	r2,r2,128
  800dec:	10bfe004 	addi	r2,r2,-128
  800df0:	10000726 	beq	r2,zero,800e10 <tick+0xad0>
  800df4:	d0a78cc3 	ldbu	r2,-25037(gp)
  800df8:	10803fcc 	andi	r2,r2,255
  800dfc:	1080201c 	xori	r2,r2,128
  800e00:	10bfe004 	addi	r2,r2,-128
  800e04:	10000226 	beq	r2,zero,800e10 <tick+0xad0>
  800e08:	00800044 	movi	r2,1
  800e0c:	00000106 	br	800e14 <tick+0xad4>
  800e10:	0005883a 	mov	r2,zero
  800e14:	d0a79b85 	stb	r2,-24978(gp)
		g32 = (g31 && _cg31);
  800e18:	d0a76803 	ldbu	r2,-25184(gp)
  800e1c:	10803fcc 	andi	r2,r2,255
  800e20:	1080201c 	xori	r2,r2,128
  800e24:	10bfe004 	addi	r2,r2,-128
  800e28:	10000726 	beq	r2,zero,800e48 <tick+0xb08>
  800e2c:	d0a7a383 	ldbu	r2,-24946(gp)
  800e30:	10803fcc 	andi	r2,r2,255
  800e34:	1080201c 	xori	r2,r2,128
  800e38:	10bfe004 	addi	r2,r2,-128
  800e3c:	10000226 	beq	r2,zero,800e48 <tick+0xb08>
  800e40:	00800044 	movi	r2,1
  800e44:	00000106 	br	800e4c <tick+0xb0c>
  800e48:	0005883a 	mov	r2,zero
  800e4c:	d0a79cc5 	stb	r2,-24973(gp)
		if (g32) {
  800e50:	d0a79cc3 	ldbu	r2,-24973(gp)
  800e54:	10803fcc 	andi	r2,r2,255
  800e58:	1080201c 	xori	r2,r2,128
  800e5c:	10bfe004 	addi	r2,r2,-128
  800e60:	10000226 	beq	r2,zero,800e6c <tick+0xb2c>
			URI_stop = (URI_stop || 1);
  800e64:	00800044 	movi	r2,1
  800e68:	d0a7a345 	stb	r2,-24947(gp)
		}
		g40 = (g39 && _cg39);
  800e6c:	d0a79f83 	ldbu	r2,-24962(gp)
  800e70:	10803fcc 	andi	r2,r2,255
  800e74:	1080201c 	xori	r2,r2,128
  800e78:	10bfe004 	addi	r2,r2,-128
  800e7c:	10000726 	beq	r2,zero,800e9c <tick+0xb5c>
  800e80:	d0a7a5c3 	ldbu	r2,-24937(gp)
  800e84:	10803fcc 	andi	r2,r2,255
  800e88:	1080201c 	xori	r2,r2,128
  800e8c:	10bfe004 	addi	r2,r2,-128
  800e90:	10000226 	beq	r2,zero,800e9c <tick+0xb5c>
  800e94:	00800044 	movi	r2,1
  800e98:	00000106 	br	800ea0 <tick+0xb60>
  800e9c:	0005883a 	mov	r2,zero
  800ea0:	d0a754c5 	stb	r2,-25261(gp)
		if (g40) {
  800ea4:	d0a754c3 	ldbu	r2,-25261(gp)
  800ea8:	10803fcc 	andi	r2,r2,255
  800eac:	1080201c 	xori	r2,r2,128
  800eb0:	10bfe004 	addi	r2,r2,-128
  800eb4:	10000226 	beq	r2,zero,800ec0 <tick+0xb80>
			URI_stop = (URI_stop || 1);
  800eb8:	00800044 	movi	r2,1
  800ebc:	d0a7a345 	stb	r2,-24947(gp)
		}
		g33 = ((g37 && (!(_cg37))) || g32 || g40);
  800ec0:	d0a76843 	ldbu	r2,-25183(gp)
  800ec4:	10803fcc 	andi	r2,r2,255
  800ec8:	1080201c 	xori	r2,r2,128
  800ecc:	10bfe004 	addi	r2,r2,-128
  800ed0:	10000526 	beq	r2,zero,800ee8 <tick+0xba8>
  800ed4:	d0a78b43 	ldbu	r2,-25043(gp)
  800ed8:	10803fcc 	andi	r2,r2,255
  800edc:	1080201c 	xori	r2,r2,128
  800ee0:	10bfe004 	addi	r2,r2,-128
  800ee4:	10000a26 	beq	r2,zero,800f10 <tick+0xbd0>
  800ee8:	d0a79cc3 	ldbu	r2,-24973(gp)
  800eec:	10803fcc 	andi	r2,r2,255
  800ef0:	1080201c 	xori	r2,r2,128
  800ef4:	10bfe004 	addi	r2,r2,-128
  800ef8:	1000051e 	bne	r2,zero,800f10 <tick+0xbd0>
  800efc:	d0a754c3 	ldbu	r2,-25261(gp)
  800f00:	10803fcc 	andi	r2,r2,255
  800f04:	1080201c 	xori	r2,r2,128
  800f08:	10bfe004 	addi	r2,r2,-128
  800f0c:	10000226 	beq	r2,zero,800f18 <tick+0xbd8>
  800f10:	00800044 	movi	r2,1
  800f14:	00000106 	br	800f1c <tick+0xbdc>
  800f18:	0005883a 	mov	r2,zero
  800f1c:	d0a77e85 	stb	r2,-25094(gp)
		g35 = (g34 && _cg34);
  800f20:	d0a77443 	ldbu	r2,-25135(gp)
  800f24:	10803fcc 	andi	r2,r2,255
  800f28:	1080201c 	xori	r2,r2,128
  800f2c:	10bfe004 	addi	r2,r2,-128
  800f30:	10000726 	beq	r2,zero,800f50 <tick+0xc10>
  800f34:	d0a76b43 	ldbu	r2,-25171(gp)
  800f38:	10803fcc 	andi	r2,r2,255
  800f3c:	1080201c 	xori	r2,r2,128
  800f40:	10bfe004 	addi	r2,r2,-128
  800f44:	10000226 	beq	r2,zero,800f50 <tick+0xc10>
  800f48:	00800044 	movi	r2,1
  800f4c:	00000106 	br	800f54 <tick+0xc14>
  800f50:	0005883a 	mov	r2,zero
  800f54:	d0a782c5 	stb	r2,-25077(gp)
		if (g35) {
  800f58:	d0a782c3 	ldbu	r2,-25077(gp)
  800f5c:	10803fcc 	andi	r2,r2,255
  800f60:	1080201c 	xori	r2,r2,128
  800f64:	10bfe004 	addi	r2,r2,-128
  800f68:	10000226 	beq	r2,zero,800f74 <tick+0xc34>
			URI_stop = (URI_stop || 1);
  800f6c:	00800044 	movi	r2,1
  800f70:	d0a7a345 	stb	r2,-24947(gp)
		}
		g45 = g1;
  800f74:	d0a76303 	ldbu	r2,-25204(gp)
  800f78:	d0a79d45 	stb	r2,-24971(gp)
		g49 = (PRE_g48);
  800f7c:	d0a78c43 	ldbu	r2,-25039(gp)
  800f80:	d0a77585 	stb	r2,-25130(gp)
		g49b = g49;
  800f84:	d0a77583 	ldbu	r2,-25130(gp)
  800f88:	d0a79e45 	stb	r2,-24967(gp)
		_cg49 = LRI_stop;
  800f8c:	d0a76b03 	ldbu	r2,-25172(gp)
  800f90:	d0a7a005 	stb	r2,-24960(gp)
		g50 = (g49b && (!(_cg49)));
  800f94:	d0a79e43 	ldbu	r2,-24967(gp)
  800f98:	10803fcc 	andi	r2,r2,255
  800f9c:	1080201c 	xori	r2,r2,128
  800fa0:	10bfe004 	addi	r2,r2,-128
  800fa4:	10000726 	beq	r2,zero,800fc4 <tick+0xc84>
  800fa8:	d0a7a003 	ldbu	r2,-24960(gp)
  800fac:	10803fcc 	andi	r2,r2,255
  800fb0:	1080201c 	xori	r2,r2,128
  800fb4:	10bfe004 	addi	r2,r2,-128
  800fb8:	1000021e 	bne	r2,zero,800fc4 <tick+0xc84>
  800fbc:	00800044 	movi	r2,1
  800fc0:	00000106 	br	800fc8 <tick+0xc88>
  800fc4:	0005883a 	mov	r2,zero
  800fc8:	d0a78985 	stb	r2,-25050(gp)
		_cg50 = LRI_ex;
  800fcc:	d0a77683 	ldbu	r2,-25126(gp)
  800fd0:	d0a794c5 	stb	r2,-25005(gp)
		g47 = (PRE_g46);
  800fd4:	d0a77383 	ldbu	r2,-25138(gp)
  800fd8:	d0a75985 	stb	r2,-25242(gp)
		g47b = g47;
  800fdc:	d0a75983 	ldbu	r2,-25242(gp)
  800fe0:	d0a76e85 	stb	r2,-25158(gp)
		_cg47 = LRI_start;
  800fe4:	d0a783c3 	ldbu	r2,-25073(gp)
  800fe8:	d0a79145 	stb	r2,-25019(gp)
		g46 =
				((g49b && _cg49) || (g50 && _cg50) || g45
  800fec:	d0a79e43 	ldbu	r2,-24967(gp)
						|| (g47b && (!(_cg47))));
  800ff0:	10803fcc 	andi	r2,r2,255
  800ff4:	1080201c 	xori	r2,r2,128
  800ff8:	10bfe004 	addi	r2,r2,-128
  800ffc:	10000526 	beq	r2,zero,801014 <tick+0xcd4>
		_cg50 = LRI_ex;
		g47 = (PRE_g46);
		g47b = g47;
		_cg47 = LRI_start;
		g46 =
				((g49b && _cg49) || (g50 && _cg50) || g45
  801000:	d0a7a003 	ldbu	r2,-24960(gp)
  801004:	10803fcc 	andi	r2,r2,255
  801008:	1080201c 	xori	r2,r2,128
  80100c:	10bfe004 	addi	r2,r2,-128
  801010:	1000191e 	bne	r2,zero,801078 <tick+0xd38>
  801014:	d0a78983 	ldbu	r2,-25050(gp)
  801018:	10803fcc 	andi	r2,r2,255
  80101c:	1080201c 	xori	r2,r2,128
  801020:	10bfe004 	addi	r2,r2,-128
  801024:	10000526 	beq	r2,zero,80103c <tick+0xcfc>
  801028:	d0a794c3 	ldbu	r2,-25005(gp)
  80102c:	10803fcc 	andi	r2,r2,255
  801030:	1080201c 	xori	r2,r2,128
  801034:	10bfe004 	addi	r2,r2,-128
  801038:	10000f1e 	bne	r2,zero,801078 <tick+0xd38>
  80103c:	d0a79d43 	ldbu	r2,-24971(gp)
  801040:	10803fcc 	andi	r2,r2,255
  801044:	1080201c 	xori	r2,r2,128
  801048:	10bfe004 	addi	r2,r2,-128
  80104c:	10000a1e 	bne	r2,zero,801078 <tick+0xd38>
						|| (g47b && (!(_cg47))));
  801050:	d0a76e83 	ldbu	r2,-25158(gp)
  801054:	10803fcc 	andi	r2,r2,255
  801058:	1080201c 	xori	r2,r2,128
  80105c:	10bfe004 	addi	r2,r2,-128
  801060:	10000726 	beq	r2,zero,801080 <tick+0xd40>
  801064:	d0a79143 	ldbu	r2,-25019(gp)
  801068:	10803fcc 	andi	r2,r2,255
  80106c:	1080201c 	xori	r2,r2,128
  801070:	10bfe004 	addi	r2,r2,-128
  801074:	1000021e 	bne	r2,zero,801080 <tick+0xd40>
  801078:	00800044 	movi	r2,1
  80107c:	00000106 	br	801084 <tick+0xd44>
  801080:	0005883a 	mov	r2,zero
		g50 = (g49b && (!(_cg49)));
		_cg50 = LRI_ex;
		g47 = (PRE_g46);
		g47b = g47;
		_cg47 = LRI_start;
		g46 =
  801084:	d0a78845 	stb	r2,-25055(gp)
				((g49b && _cg49) || (g50 && _cg50) || g45
						|| (g47b && (!(_cg47))));
		g48 = ((g47b && _cg47) || (g50 && (!(_cg50))));
  801088:	d0a76e83 	ldbu	r2,-25158(gp)
  80108c:	10803fcc 	andi	r2,r2,255
  801090:	1080201c 	xori	r2,r2,128
  801094:	10bfe004 	addi	r2,r2,-128
  801098:	10000526 	beq	r2,zero,8010b0 <tick+0xd70>
  80109c:	d0a79143 	ldbu	r2,-25019(gp)
  8010a0:	10803fcc 	andi	r2,r2,255
  8010a4:	1080201c 	xori	r2,r2,128
  8010a8:	10bfe004 	addi	r2,r2,-128
  8010ac:	10000a1e 	bne	r2,zero,8010d8 <tick+0xd98>
  8010b0:	d0a78983 	ldbu	r2,-25050(gp)
  8010b4:	10803fcc 	andi	r2,r2,255
  8010b8:	1080201c 	xori	r2,r2,128
  8010bc:	10bfe004 	addi	r2,r2,-128
  8010c0:	10000726 	beq	r2,zero,8010e0 <tick+0xda0>
  8010c4:	d0a794c3 	ldbu	r2,-25005(gp)
  8010c8:	10803fcc 	andi	r2,r2,255
  8010cc:	1080201c 	xori	r2,r2,128
  8010d0:	10bfe004 	addi	r2,r2,-128
  8010d4:	1000021e 	bne	r2,zero,8010e0 <tick+0xda0>
  8010d8:	00800044 	movi	r2,1
  8010dc:	00000106 	br	8010e4 <tick+0xda4>
  8010e0:	0005883a 	mov	r2,zero
  8010e4:	d0a76e05 	stb	r2,-25160(gp)
		g52 = g1;
  8010e8:	d0a76303 	ldbu	r2,-25204(gp)
  8010ec:	d0a76685 	stb	r2,-25190(gp)
		g56 = (PRE_g55);
  8010f0:	d0a773c3 	ldbu	r2,-25137(gp)
  8010f4:	d0a77d05 	stb	r2,-25100(gp)
		g56b = g56;
  8010f8:	d0a77d03 	ldbu	r2,-25100(gp)
  8010fc:	d0a75705 	stb	r2,-25252(gp)
		_cg56 = URI_stop;
  801100:	d0a7a343 	ldbu	r2,-24947(gp)
  801104:	d0a792c5 	stb	r2,-25013(gp)
		g57 = (g56b && (!(_cg56)));
  801108:	d0a75703 	ldbu	r2,-25252(gp)
  80110c:	10803fcc 	andi	r2,r2,255
  801110:	1080201c 	xori	r2,r2,128
  801114:	10bfe004 	addi	r2,r2,-128
  801118:	10000726 	beq	r2,zero,801138 <tick+0xdf8>
  80111c:	d0a792c3 	ldbu	r2,-25013(gp)
  801120:	10803fcc 	andi	r2,r2,255
  801124:	1080201c 	xori	r2,r2,128
  801128:	10bfe004 	addi	r2,r2,-128
  80112c:	1000021e 	bne	r2,zero,801138 <tick+0xdf8>
  801130:	00800044 	movi	r2,1
  801134:	00000106 	br	80113c <tick+0xdfc>
  801138:	0005883a 	mov	r2,zero
  80113c:	d0a78f05 	stb	r2,-25028(gp)
		_cg57 = URI_ex;
  801140:	d0a78103 	ldbu	r2,-25084(gp)
  801144:	d0a79905 	stb	r2,-24988(gp)
		g54 = (PRE_g53);
  801148:	d0a76c43 	ldbu	r2,-25167(gp)
  80114c:	d0a77945 	stb	r2,-25115(gp)
		g54b = g54;
  801150:	d0a77943 	ldbu	r2,-25115(gp)
  801154:	d0a79c05 	stb	r2,-24976(gp)
		_cg54 = URI_start;
  801158:	d0a7a283 	ldbu	r2,-24950(gp)
  80115c:	d0a79645 	stb	r2,-24999(gp)
		g53 =
				((g56b && _cg56) || (g57 && _cg57) || g52
  801160:	d0a75703 	ldbu	r2,-25252(gp)
						|| (g54b && (!(_cg54))));
  801164:	10803fcc 	andi	r2,r2,255
  801168:	1080201c 	xori	r2,r2,128
  80116c:	10bfe004 	addi	r2,r2,-128
  801170:	10000526 	beq	r2,zero,801188 <tick+0xe48>
		_cg57 = URI_ex;
		g54 = (PRE_g53);
		g54b = g54;
		_cg54 = URI_start;
		g53 =
				((g56b && _cg56) || (g57 && _cg57) || g52
  801174:	d0a792c3 	ldbu	r2,-25013(gp)
  801178:	10803fcc 	andi	r2,r2,255
  80117c:	1080201c 	xori	r2,r2,128
  801180:	10bfe004 	addi	r2,r2,-128
  801184:	1000191e 	bne	r2,zero,8011ec <tick+0xeac>
  801188:	d0a78f03 	ldbu	r2,-25028(gp)
  80118c:	10803fcc 	andi	r2,r2,255
  801190:	1080201c 	xori	r2,r2,128
  801194:	10bfe004 	addi	r2,r2,-128
  801198:	10000526 	beq	r2,zero,8011b0 <tick+0xe70>
  80119c:	d0a79903 	ldbu	r2,-24988(gp)
  8011a0:	10803fcc 	andi	r2,r2,255
  8011a4:	1080201c 	xori	r2,r2,128
  8011a8:	10bfe004 	addi	r2,r2,-128
  8011ac:	10000f1e 	bne	r2,zero,8011ec <tick+0xeac>
  8011b0:	d0a76683 	ldbu	r2,-25190(gp)
  8011b4:	10803fcc 	andi	r2,r2,255
  8011b8:	1080201c 	xori	r2,r2,128
  8011bc:	10bfe004 	addi	r2,r2,-128
  8011c0:	10000a1e 	bne	r2,zero,8011ec <tick+0xeac>
						|| (g54b && (!(_cg54))));
  8011c4:	d0a79c03 	ldbu	r2,-24976(gp)
  8011c8:	10803fcc 	andi	r2,r2,255
  8011cc:	1080201c 	xori	r2,r2,128
  8011d0:	10bfe004 	addi	r2,r2,-128
  8011d4:	10000726 	beq	r2,zero,8011f4 <tick+0xeb4>
  8011d8:	d0a79643 	ldbu	r2,-24999(gp)
  8011dc:	10803fcc 	andi	r2,r2,255
  8011e0:	1080201c 	xori	r2,r2,128
  8011e4:	10bfe004 	addi	r2,r2,-128
  8011e8:	1000021e 	bne	r2,zero,8011f4 <tick+0xeb4>
  8011ec:	00800044 	movi	r2,1
  8011f0:	00000106 	br	8011f8 <tick+0xeb8>
  8011f4:	0005883a 	mov	r2,zero
		g57 = (g56b && (!(_cg56)));
		_cg57 = URI_ex;
		g54 = (PRE_g53);
		g54b = g54;
		_cg54 = URI_start;
		g53 =
  8011f8:	d0a78e45 	stb	r2,-25031(gp)
				((g56b && _cg56) || (g57 && _cg57) || g52
						|| (g54b && (!(_cg54))));
		g55 = ((g54b && _cg54) || (g57 && (!(_cg57))));
  8011fc:	d0a79c03 	ldbu	r2,-24976(gp)
  801200:	10803fcc 	andi	r2,r2,255
  801204:	1080201c 	xori	r2,r2,128
  801208:	10bfe004 	addi	r2,r2,-128
  80120c:	10000526 	beq	r2,zero,801224 <tick+0xee4>
  801210:	d0a79643 	ldbu	r2,-24999(gp)
  801214:	10803fcc 	andi	r2,r2,255
  801218:	1080201c 	xori	r2,r2,128
  80121c:	10bfe004 	addi	r2,r2,-128
  801220:	10000a1e 	bne	r2,zero,80124c <tick+0xf0c>
  801224:	d0a78f03 	ldbu	r2,-25028(gp)
  801228:	10803fcc 	andi	r2,r2,255
  80122c:	1080201c 	xori	r2,r2,128
  801230:	10bfe004 	addi	r2,r2,-128
  801234:	10000726 	beq	r2,zero,801254 <tick+0xf14>
  801238:	d0a79903 	ldbu	r2,-24988(gp)
  80123c:	10803fcc 	andi	r2,r2,255
  801240:	1080201c 	xori	r2,r2,128
  801244:	10bfe004 	addi	r2,r2,-128
  801248:	1000021e 	bne	r2,zero,801254 <tick+0xf14>
  80124c:	00800044 	movi	r2,1
  801250:	00000106 	br	801258 <tick+0xf18>
  801254:	0005883a 	mov	r2,zero
  801258:	d0a75745 	stb	r2,-25251(gp)
		g59 = g1;
  80125c:	d0a76303 	ldbu	r2,-25204(gp)
  801260:	d0a778c5 	stb	r2,-25117(gp)
		g64 = (PRE_g63);
  801264:	d0a758c3 	ldbu	r2,-25245(gp)
  801268:	d0a772c5 	stb	r2,-25141(gp)
		_cg64 = VRP_ex;
  80126c:	d0a77bc3 	ldbu	r2,-25105(gp)
  801270:	d0a78185 	stb	r2,-25082(gp)
		g61 = (PRE_g60);
  801274:	d0a78a83 	ldbu	r2,-25046(gp)
  801278:	d0a76345 	stb	r2,-25203(gp)
		g61b = g61;
  80127c:	d0a76343 	ldbu	r2,-25203(gp)
  801280:	d0a76745 	stb	r2,-25187(gp)
		_cg61 = VPace;
  801284:	d0a79f03 	ldbu	r2,-24964(gp)
  801288:	d0a769c5 	stb	r2,-25177(gp)
		g65 = (g61b && (!(_cg61)));
  80128c:	d0a76743 	ldbu	r2,-25187(gp)
  801290:	10803fcc 	andi	r2,r2,255
  801294:	1080201c 	xori	r2,r2,128
  801298:	10bfe004 	addi	r2,r2,-128
  80129c:	10000726 	beq	r2,zero,8012bc <tick+0xf7c>
  8012a0:	d0a769c3 	ldbu	r2,-25177(gp)
  8012a4:	10803fcc 	andi	r2,r2,255
  8012a8:	1080201c 	xori	r2,r2,128
  8012ac:	10bfe004 	addi	r2,r2,-128
  8012b0:	1000021e 	bne	r2,zero,8012bc <tick+0xf7c>
  8012b4:	00800044 	movi	r2,1
  8012b8:	00000106 	br	8012c0 <tick+0xf80>
  8012bc:	0005883a 	mov	r2,zero
  8012c0:	d0a79ac5 	stb	r2,-24981(gp)
		_cg65 = VSense;
  8012c4:	d0a77dc3 	ldbu	r2,-25097(gp)
  8012c8:	d0a78745 	stb	r2,-25059(gp)
		g60 = ((g64 && _cg64) || (g65 && (!(_cg65))) || g59);
  8012cc:	d0a772c3 	ldbu	r2,-25141(gp)
  8012d0:	10803fcc 	andi	r2,r2,255
  8012d4:	1080201c 	xori	r2,r2,128
  8012d8:	10bfe004 	addi	r2,r2,-128
  8012dc:	10000526 	beq	r2,zero,8012f4 <tick+0xfb4>
  8012e0:	d0a78183 	ldbu	r2,-25082(gp)
  8012e4:	10803fcc 	andi	r2,r2,255
  8012e8:	1080201c 	xori	r2,r2,128
  8012ec:	10bfe004 	addi	r2,r2,-128
  8012f0:	10000f1e 	bne	r2,zero,801330 <tick+0xff0>
  8012f4:	d0a79ac3 	ldbu	r2,-24981(gp)
  8012f8:	10803fcc 	andi	r2,r2,255
  8012fc:	1080201c 	xori	r2,r2,128
  801300:	10bfe004 	addi	r2,r2,-128
  801304:	10000526 	beq	r2,zero,80131c <tick+0xfdc>
  801308:	d0a78743 	ldbu	r2,-25059(gp)
  80130c:	10803fcc 	andi	r2,r2,255
  801310:	1080201c 	xori	r2,r2,128
  801314:	10bfe004 	addi	r2,r2,-128
  801318:	10000526 	beq	r2,zero,801330 <tick+0xff0>
  80131c:	d0a778c3 	ldbu	r2,-25117(gp)
  801320:	10803fcc 	andi	r2,r2,255
  801324:	1080201c 	xori	r2,r2,128
  801328:	10bfe004 	addi	r2,r2,-128
  80132c:	10000226 	beq	r2,zero,801338 <tick+0xff8>
  801330:	00800044 	movi	r2,1
  801334:	00000106 	br	80133c <tick+0xffc>
  801338:	0005883a 	mov	r2,zero
  80133c:	d0a784c5 	stb	r2,-25069(gp)
		g62 = (g61b && _cg61);
  801340:	d0a76743 	ldbu	r2,-25187(gp)
  801344:	10803fcc 	andi	r2,r2,255
  801348:	1080201c 	xori	r2,r2,128
  80134c:	10bfe004 	addi	r2,r2,-128
  801350:	10000726 	beq	r2,zero,801370 <tick+0x1030>
  801354:	d0a769c3 	ldbu	r2,-25177(gp)
  801358:	10803fcc 	andi	r2,r2,255
  80135c:	1080201c 	xori	r2,r2,128
  801360:	10bfe004 	addi	r2,r2,-128
  801364:	10000226 	beq	r2,zero,801370 <tick+0x1030>
  801368:	00800044 	movi	r2,1
  80136c:	00000106 	br	801374 <tick+0x1034>
  801370:	0005883a 	mov	r2,zero
  801374:	d0a76885 	stb	r2,-25182(gp)
		if (g62) {
  801378:	d0a76883 	ldbu	r2,-25182(gp)
  80137c:	10803fcc 	andi	r2,r2,255
  801380:	1080201c 	xori	r2,r2,128
  801384:	10bfe004 	addi	r2,r2,-128
  801388:	10000226 	beq	r2,zero,801394 <tick+0x1054>
			VRP_start = (VRP_start || 1);
  80138c:	00800044 	movi	r2,1
  801390:	d0a78005 	stb	r2,-25088(gp)
		}
		g66 = (g65 && _cg65);
  801394:	d0a79ac3 	ldbu	r2,-24981(gp)
  801398:	10803fcc 	andi	r2,r2,255
  80139c:	1080201c 	xori	r2,r2,128
  8013a0:	10bfe004 	addi	r2,r2,-128
  8013a4:	10000726 	beq	r2,zero,8013c4 <tick+0x1084>
  8013a8:	d0a78743 	ldbu	r2,-25059(gp)
  8013ac:	10803fcc 	andi	r2,r2,255
  8013b0:	1080201c 	xori	r2,r2,128
  8013b4:	10bfe004 	addi	r2,r2,-128
  8013b8:	10000226 	beq	r2,zero,8013c4 <tick+0x1084>
  8013bc:	00800044 	movi	r2,1
  8013c0:	00000106 	br	8013c8 <tick+0x1088>
  8013c4:	0005883a 	mov	r2,zero
  8013c8:	d0a77985 	stb	r2,-25114(gp)
		if (g66) {
  8013cc:	d0a77983 	ldbu	r2,-25114(gp)
  8013d0:	10803fcc 	andi	r2,r2,255
  8013d4:	1080201c 	xori	r2,r2,128
  8013d8:	10bfe004 	addi	r2,r2,-128
  8013dc:	10000226 	beq	r2,zero,8013e8 <tick+0x10a8>
			VRP_start = (VRP_start || 1);
  8013e0:	00800044 	movi	r2,1
  8013e4:	d0a78005 	stb	r2,-25088(gp)
		}
		g63 = ((g64 && (!(_cg64))) || g66 || g62);
  8013e8:	d0a772c3 	ldbu	r2,-25141(gp)
  8013ec:	10803fcc 	andi	r2,r2,255
  8013f0:	1080201c 	xori	r2,r2,128
  8013f4:	10bfe004 	addi	r2,r2,-128
  8013f8:	10000526 	beq	r2,zero,801410 <tick+0x10d0>
  8013fc:	d0a78183 	ldbu	r2,-25082(gp)
  801400:	10803fcc 	andi	r2,r2,255
  801404:	1080201c 	xori	r2,r2,128
  801408:	10bfe004 	addi	r2,r2,-128
  80140c:	10000a26 	beq	r2,zero,801438 <tick+0x10f8>
  801410:	d0a77983 	ldbu	r2,-25114(gp)
  801414:	10803fcc 	andi	r2,r2,255
  801418:	1080201c 	xori	r2,r2,128
  80141c:	10bfe004 	addi	r2,r2,-128
  801420:	1000051e 	bne	r2,zero,801438 <tick+0x10f8>
  801424:	d0a76883 	ldbu	r2,-25182(gp)
  801428:	10803fcc 	andi	r2,r2,255
  80142c:	1080201c 	xori	r2,r2,128
  801430:	10bfe004 	addi	r2,r2,-128
  801434:	10000226 	beq	r2,zero,801440 <tick+0x1100>
  801438:	00800044 	movi	r2,1
  80143c:	00000106 	br	801444 <tick+0x1104>
  801440:	0005883a 	mov	r2,zero
  801444:	d0a78445 	stb	r2,-25071(gp)
		g68 = g1;
  801448:	d0a76303 	ldbu	r2,-25204(gp)
  80144c:	d0a79945 	stb	r2,-24987(gp)
		g70 = (PRE_g69);
  801450:	d0a76543 	ldbu	r2,-25195(gp)
  801454:	d0a78f85 	stb	r2,-25026(gp)
		g70b = g70;
  801458:	d0a78f83 	ldbu	r2,-25026(gp)
  80145c:	d0a797c5 	stb	r2,-24993(gp)
		_cg70 = VRP_start;
  801460:	d0a78003 	ldbu	r2,-25088(gp)
  801464:	d0a78b05 	stb	r2,-25044(gp)
		g72 = (PRE_g71);
  801468:	d0a77a43 	ldbu	r2,-25111(gp)
  80146c:	d0a79305 	stb	r2,-25012(gp)
		_cg72 = VRP_ex;
  801470:	d0a77bc3 	ldbu	r2,-25105(gp)
  801474:	d0a7a585 	stb	r2,-24938(gp)
		g73 = (g72 && (!(_cg72)));
  801478:	d0a79303 	ldbu	r2,-25012(gp)
  80147c:	10803fcc 	andi	r2,r2,255
  801480:	1080201c 	xori	r2,r2,128
  801484:	10bfe004 	addi	r2,r2,-128
  801488:	10000726 	beq	r2,zero,8014a8 <tick+0x1168>
  80148c:	d0a7a583 	ldbu	r2,-24938(gp)
  801490:	10803fcc 	andi	r2,r2,255
  801494:	1080201c 	xori	r2,r2,128
  801498:	10bfe004 	addi	r2,r2,-128
  80149c:	1000021e 	bne	r2,zero,8014a8 <tick+0x1168>
  8014a0:	00800044 	movi	r2,1
  8014a4:	00000106 	br	8014ac <tick+0x116c>
  8014a8:	0005883a 	mov	r2,zero
  8014ac:	d0a79bc5 	stb	r2,-24977(gp)
		_cg73 = VRP_stop;
  8014b0:	d0a78883 	ldbu	r2,-25054(gp)
  8014b4:	d0a76105 	stb	r2,-25212(gp)
		g69 = (g68 || (g70b && (!(_cg70))) || (g72 && _cg72) || (g73 && _cg73));
  8014b8:	d0a79943 	ldbu	r2,-24987(gp)
  8014bc:	10803fcc 	andi	r2,r2,255
  8014c0:	1080201c 	xori	r2,r2,128
  8014c4:	10bfe004 	addi	r2,r2,-128
  8014c8:	10001e1e 	bne	r2,zero,801544 <tick+0x1204>
  8014cc:	d0a797c3 	ldbu	r2,-24993(gp)
  8014d0:	10803fcc 	andi	r2,r2,255
  8014d4:	1080201c 	xori	r2,r2,128
  8014d8:	10bfe004 	addi	r2,r2,-128
  8014dc:	10000526 	beq	r2,zero,8014f4 <tick+0x11b4>
  8014e0:	d0a78b03 	ldbu	r2,-25044(gp)
  8014e4:	10803fcc 	andi	r2,r2,255
  8014e8:	1080201c 	xori	r2,r2,128
  8014ec:	10bfe004 	addi	r2,r2,-128
  8014f0:	10001426 	beq	r2,zero,801544 <tick+0x1204>
  8014f4:	d0a79303 	ldbu	r2,-25012(gp)
  8014f8:	10803fcc 	andi	r2,r2,255
  8014fc:	1080201c 	xori	r2,r2,128
  801500:	10bfe004 	addi	r2,r2,-128
  801504:	10000526 	beq	r2,zero,80151c <tick+0x11dc>
  801508:	d0a7a583 	ldbu	r2,-24938(gp)
  80150c:	10803fcc 	andi	r2,r2,255
  801510:	1080201c 	xori	r2,r2,128
  801514:	10bfe004 	addi	r2,r2,-128
  801518:	10000a1e 	bne	r2,zero,801544 <tick+0x1204>
  80151c:	d0a79bc3 	ldbu	r2,-24977(gp)
  801520:	10803fcc 	andi	r2,r2,255
  801524:	1080201c 	xori	r2,r2,128
  801528:	10bfe004 	addi	r2,r2,-128
  80152c:	10000726 	beq	r2,zero,80154c <tick+0x120c>
  801530:	d0a76103 	ldbu	r2,-25212(gp)
  801534:	10803fcc 	andi	r2,r2,255
  801538:	1080201c 	xori	r2,r2,128
  80153c:	10bfe004 	addi	r2,r2,-128
  801540:	10000226 	beq	r2,zero,80154c <tick+0x120c>
  801544:	00800044 	movi	r2,1
  801548:	00000106 	br	801550 <tick+0x1210>
  80154c:	0005883a 	mov	r2,zero
  801550:	d0a7a4c5 	stb	r2,-24941(gp)
		g71 = ((g70b && _cg70) || (g73 && (!(_cg73))));
  801554:	d0a797c3 	ldbu	r2,-24993(gp)
  801558:	10803fcc 	andi	r2,r2,255
  80155c:	1080201c 	xori	r2,r2,128
  801560:	10bfe004 	addi	r2,r2,-128
  801564:	10000526 	beq	r2,zero,80157c <tick+0x123c>
  801568:	d0a78b03 	ldbu	r2,-25044(gp)
  80156c:	10803fcc 	andi	r2,r2,255
  801570:	1080201c 	xori	r2,r2,128
  801574:	10bfe004 	addi	r2,r2,-128
  801578:	10000a1e 	bne	r2,zero,8015a4 <tick+0x1264>
  80157c:	d0a79bc3 	ldbu	r2,-24977(gp)
  801580:	10803fcc 	andi	r2,r2,255
  801584:	1080201c 	xori	r2,r2,128
  801588:	10bfe004 	addi	r2,r2,-128
  80158c:	10000726 	beq	r2,zero,8015ac <tick+0x126c>
  801590:	d0a76103 	ldbu	r2,-25212(gp)
  801594:	10803fcc 	andi	r2,r2,255
  801598:	1080201c 	xori	r2,r2,128
  80159c:	10bfe004 	addi	r2,r2,-128
  8015a0:	1000021e 	bne	r2,zero,8015ac <tick+0x126c>
  8015a4:	00800044 	movi	r2,1
  8015a8:	00000106 	br	8015b0 <tick+0x1270>
  8015ac:	0005883a 	mov	r2,zero
  8015b0:	d0a763c5 	stb	r2,-25201(gp)
		g75 = g1;
  8015b4:	d0a76303 	ldbu	r2,-25204(gp)
  8015b8:	d0a796c5 	stb	r2,-24997(gp)
		g96 = (g94 && (!(_cg94)));
  8015bc:	d0a774c3 	ldbu	r2,-25133(gp)
  8015c0:	10803fcc 	andi	r2,r2,255
  8015c4:	1080201c 	xori	r2,r2,128
  8015c8:	10bfe004 	addi	r2,r2,-128
  8015cc:	10000726 	beq	r2,zero,8015ec <tick+0x12ac>
  8015d0:	d0a798c3 	ldbu	r2,-24989(gp)
  8015d4:	10803fcc 	andi	r2,r2,255
  8015d8:	1080201c 	xori	r2,r2,128
  8015dc:	10bfe004 	addi	r2,r2,-128
  8015e0:	1000021e 	bne	r2,zero,8015ec <tick+0x12ac>
  8015e4:	00800044 	movi	r2,1
  8015e8:	00000106 	br	8015f0 <tick+0x12b0>
  8015ec:	0005883a 	mov	r2,zero
  8015f0:	d0a789c5 	stb	r2,-25049(gp)
		_cg96 = VSense;
  8015f4:	d0a77dc3 	ldbu	r2,-25097(gp)
  8015f8:	d0a75785 	stb	r2,-25250(gp)
		g97 = (g96 && _cg96);
  8015fc:	d0a789c3 	ldbu	r2,-25049(gp)
  801600:	10803fcc 	andi	r2,r2,255
  801604:	1080201c 	xori	r2,r2,128
  801608:	10bfe004 	addi	r2,r2,-128
  80160c:	10000726 	beq	r2,zero,80162c <tick+0x12ec>
  801610:	d0a75783 	ldbu	r2,-25250(gp)
  801614:	10803fcc 	andi	r2,r2,255
  801618:	1080201c 	xori	r2,r2,128
  80161c:	10bfe004 	addi	r2,r2,-128
  801620:	10000226 	beq	r2,zero,80162c <tick+0x12ec>
  801624:	00800044 	movi	r2,1
  801628:	00000106 	br	801630 <tick+0x12f0>
  80162c:	0005883a 	mov	r2,zero
  801630:	d0a76645 	stb	r2,-25191(gp)
		if (g97) {
  801634:	d0a76643 	ldbu	r2,-25191(gp)
  801638:	10803fcc 	andi	r2,r2,255
  80163c:	1080201c 	xori	r2,r2,128
  801640:	10bfe004 	addi	r2,r2,-128
  801644:	10000226 	beq	r2,zero,801650 <tick+0x1310>
			AVI_stop = (AVI_stop || 1);
  801648:	00800044 	movi	r2,1
  80164c:	d0a76285 	stb	r2,-25206(gp)
		}
		g98 = (g96 && (!(_cg96)));
  801650:	d0a789c3 	ldbu	r2,-25049(gp)
  801654:	10803fcc 	andi	r2,r2,255
  801658:	1080201c 	xori	r2,r2,128
  80165c:	10bfe004 	addi	r2,r2,-128
  801660:	10000726 	beq	r2,zero,801680 <tick+0x1340>
  801664:	d0a75783 	ldbu	r2,-25250(gp)
  801668:	10803fcc 	andi	r2,r2,255
  80166c:	1080201c 	xori	r2,r2,128
  801670:	10bfe004 	addi	r2,r2,-128
  801674:	1000021e 	bne	r2,zero,801680 <tick+0x1340>
  801678:	00800044 	movi	r2,1
  80167c:	00000106 	br	801684 <tick+0x1344>
  801680:	0005883a 	mov	r2,zero
  801684:	d0a78e05 	stb	r2,-25032(gp)
		_cg98 = VPace;
  801688:	d0a79f03 	ldbu	r2,-24964(gp)
  80168c:	d0a765c5 	stb	r2,-25193(gp)
		g99 = (g98 && _cg98);
  801690:	d0a78e03 	ldbu	r2,-25032(gp)
  801694:	10803fcc 	andi	r2,r2,255
  801698:	1080201c 	xori	r2,r2,128
  80169c:	10bfe004 	addi	r2,r2,-128
  8016a0:	10000726 	beq	r2,zero,8016c0 <tick+0x1380>
  8016a4:	d0a765c3 	ldbu	r2,-25193(gp)
  8016a8:	10803fcc 	andi	r2,r2,255
  8016ac:	1080201c 	xori	r2,r2,128
  8016b0:	10bfe004 	addi	r2,r2,-128
  8016b4:	10000226 	beq	r2,zero,8016c0 <tick+0x1380>
  8016b8:	00800044 	movi	r2,1
  8016bc:	00000106 	br	8016c4 <tick+0x1384>
  8016c0:	0005883a 	mov	r2,zero
  8016c4:	d0a77905 	stb	r2,-25116(gp)
		if (g99) {
  8016c8:	d0a77903 	ldbu	r2,-25116(gp)
  8016cc:	10803fcc 	andi	r2,r2,255
  8016d0:	1080201c 	xori	r2,r2,128
  8016d4:	10bfe004 	addi	r2,r2,-128
  8016d8:	10000226 	beq	r2,zero,8016e4 <tick+0x13a4>
			AVI_stop = (AVI_stop || 1);
  8016dc:	00800044 	movi	r2,1
  8016e0:	d0a76285 	stb	r2,-25206(gp)
		}
		g80 = (PRE_g79);
  8016e4:	d0a77ac3 	ldbu	r2,-25109(gp)
  8016e8:	d0a77745 	stb	r2,-25123(gp)
		_cg80 = VSense;
  8016ec:	d0a77dc3 	ldbu	r2,-25097(gp)
  8016f0:	d0a78c85 	stb	r2,-25038(gp)
		g81 = (g80 && _cg80);
  8016f4:	d0a77743 	ldbu	r2,-25123(gp)
  8016f8:	10803fcc 	andi	r2,r2,255
  8016fc:	1080201c 	xori	r2,r2,128
  801700:	10bfe004 	addi	r2,r2,-128
  801704:	10000726 	beq	r2,zero,801724 <tick+0x13e4>
  801708:	d0a78c83 	ldbu	r2,-25038(gp)
  80170c:	10803fcc 	andi	r2,r2,255
  801710:	1080201c 	xori	r2,r2,128
  801714:	10bfe004 	addi	r2,r2,-128
  801718:	10000226 	beq	r2,zero,801724 <tick+0x13e4>
  80171c:	00800044 	movi	r2,1
  801720:	00000106 	br	801728 <tick+0x13e8>
  801724:	0005883a 	mov	r2,zero
  801728:	d0a79345 	stb	r2,-25011(gp)
		if (g81) {
  80172c:	d0a79343 	ldbu	r2,-25011(gp)
  801730:	10803fcc 	andi	r2,r2,255
  801734:	1080201c 	xori	r2,r2,128
  801738:	10bfe004 	addi	r2,r2,-128
  80173c:	10000226 	beq	r2,zero,801748 <tick+0x1408>
			AVI_stop = (AVI_stop || 1);
  801740:	00800044 	movi	r2,1
  801744:	d0a76285 	stb	r2,-25206(gp)
		}
		g117 = (PRE_g116);
  801748:	d0a77103 	ldbu	r2,-25148(gp)
  80174c:	d0a771c5 	stb	r2,-25145(gp)
		_cg117 = ASense;
  801750:	d0a76bc3 	ldbu	r2,-25169(gp)
  801754:	d0a78c05 	stb	r2,-25040(gp)
		g119 = (g117 && (!(_cg117)));
  801758:	d0a771c3 	ldbu	r2,-25145(gp)
  80175c:	10803fcc 	andi	r2,r2,255
  801760:	1080201c 	xori	r2,r2,128
  801764:	10bfe004 	addi	r2,r2,-128
  801768:	10000726 	beq	r2,zero,801788 <tick+0x1448>
  80176c:	d0a78c03 	ldbu	r2,-25040(gp)
  801770:	10803fcc 	andi	r2,r2,255
  801774:	1080201c 	xori	r2,r2,128
  801778:	10bfe004 	addi	r2,r2,-128
  80177c:	1000021e 	bne	r2,zero,801788 <tick+0x1448>
  801780:	00800044 	movi	r2,1
  801784:	00000106 	br	80178c <tick+0x144c>
  801788:	0005883a 	mov	r2,zero
  80178c:	d0a785c5 	stb	r2,-25065(gp)
		_cg119 = AEI_ex;
  801790:	d0a75883 	ldbu	r2,-25246(gp)
  801794:	d0a76985 	stb	r2,-25178(gp)
		g120 = (g119 && _cg119);
  801798:	d0a785c3 	ldbu	r2,-25065(gp)
  80179c:	10803fcc 	andi	r2,r2,255
  8017a0:	1080201c 	xori	r2,r2,128
  8017a4:	10bfe004 	addi	r2,r2,-128
  8017a8:	10000726 	beq	r2,zero,8017c8 <tick+0x1488>
  8017ac:	d0a76983 	ldbu	r2,-25178(gp)
  8017b0:	10803fcc 	andi	r2,r2,255
  8017b4:	1080201c 	xori	r2,r2,128
  8017b8:	10bfe004 	addi	r2,r2,-128
  8017bc:	10000226 	beq	r2,zero,8017c8 <tick+0x1488>
  8017c0:	00800044 	movi	r2,1
  8017c4:	00000106 	br	8017cc <tick+0x148c>
  8017c8:	0005883a 	mov	r2,zero
  8017cc:	d0a7a045 	stb	r2,-24959(gp)
		if (g120) {
  8017d0:	d0a7a043 	ldbu	r2,-24959(gp)
  8017d4:	10803fcc 	andi	r2,r2,255
  8017d8:	1080201c 	xori	r2,r2,128
  8017dc:	10bfe004 	addi	r2,r2,-128
  8017e0:	10000226 	beq	r2,zero,8017ec <tick+0x14ac>
			APace = (APace || 1);
  8017e4:	00800044 	movi	r2,1
  8017e8:	d0a75545 	stb	r2,-25259(gp)
		}
		g77 = (PRE_g76);
  8017ec:	d0a793c3 	ldbu	r2,-25009(gp)
  8017f0:	d0a79c85 	stb	r2,-24974(gp)
		_cg77 = ASense;
  8017f4:	d0a76bc3 	ldbu	r2,-25169(gp)
  8017f8:	d0a79885 	stb	r2,-24990(gp)
		g100 = (g77 && (!(_cg77)));
  8017fc:	d0a79c83 	ldbu	r2,-24974(gp)
  801800:	10803fcc 	andi	r2,r2,255
  801804:	1080201c 	xori	r2,r2,128
  801808:	10bfe004 	addi	r2,r2,-128
  80180c:	10000726 	beq	r2,zero,80182c <tick+0x14ec>
  801810:	d0a79883 	ldbu	r2,-24990(gp)
  801814:	10803fcc 	andi	r2,r2,255
  801818:	1080201c 	xori	r2,r2,128
  80181c:	10bfe004 	addi	r2,r2,-128
  801820:	1000021e 	bne	r2,zero,80182c <tick+0x14ec>
  801824:	00800044 	movi	r2,1
  801828:	00000106 	br	801830 <tick+0x14f0>
  80182c:	0005883a 	mov	r2,zero
  801830:	d0a77885 	stb	r2,-25118(gp)
		_cg100 = APace;
  801834:	d0a75543 	ldbu	r2,-25259(gp)
  801838:	d0a77c85 	stb	r2,-25102(gp)
		g88 = (g86 && (!(_cg86)));
  80183c:	d0a78683 	ldbu	r2,-25062(gp)
  801840:	10803fcc 	andi	r2,r2,255
  801844:	1080201c 	xori	r2,r2,128
  801848:	10bfe004 	addi	r2,r2,-128
  80184c:	10000726 	beq	r2,zero,80186c <tick+0x152c>
  801850:	d0a79103 	ldbu	r2,-25020(gp)
  801854:	10803fcc 	andi	r2,r2,255
  801858:	1080201c 	xori	r2,r2,128
  80185c:	10bfe004 	addi	r2,r2,-128
  801860:	1000021e 	bne	r2,zero,80186c <tick+0x152c>
  801864:	00800044 	movi	r2,1
  801868:	00000106 	br	801870 <tick+0x1530>
  80186c:	0005883a 	mov	r2,zero
  801870:	d0a79d05 	stb	r2,-24972(gp)
		_cg88 = VSense;
  801874:	d0a77dc3 	ldbu	r2,-25097(gp)
  801878:	d0a79fc5 	stb	r2,-24961(gp)
		g90 = (g88 && (!(_cg88)));
  80187c:	d0a79d03 	ldbu	r2,-24972(gp)
  801880:	10803fcc 	andi	r2,r2,255
  801884:	1080201c 	xori	r2,r2,128
  801888:	10bfe004 	addi	r2,r2,-128
  80188c:	10000726 	beq	r2,zero,8018ac <tick+0x156c>
  801890:	d0a79fc3 	ldbu	r2,-24961(gp)
  801894:	10803fcc 	andi	r2,r2,255
  801898:	1080201c 	xori	r2,r2,128
  80189c:	10bfe004 	addi	r2,r2,-128
  8018a0:	1000021e 	bne	r2,zero,8018ac <tick+0x156c>
  8018a4:	00800044 	movi	r2,1
  8018a8:	00000106 	br	8018b0 <tick+0x1570>
  8018ac:	0005883a 	mov	r2,zero
  8018b0:	d0a78345 	stb	r2,-25075(gp)
		_cg90 = VPace;
  8018b4:	d0a79f03 	ldbu	r2,-24964(gp)
  8018b8:	d0a77645 	stb	r2,-25127(gp)
		g91 = (g90 && _cg90);
  8018bc:	d0a78343 	ldbu	r2,-25075(gp)
  8018c0:	10803fcc 	andi	r2,r2,255
  8018c4:	1080201c 	xori	r2,r2,128
  8018c8:	10bfe004 	addi	r2,r2,-128
  8018cc:	10000726 	beq	r2,zero,8018ec <tick+0x15ac>
  8018d0:	d0a77643 	ldbu	r2,-25127(gp)
  8018d4:	10803fcc 	andi	r2,r2,255
  8018d8:	1080201c 	xori	r2,r2,128
  8018dc:	10bfe004 	addi	r2,r2,-128
  8018e0:	10000226 	beq	r2,zero,8018ec <tick+0x15ac>
  8018e4:	00800044 	movi	r2,1
  8018e8:	00000106 	br	8018f0 <tick+0x15b0>
  8018ec:	0005883a 	mov	r2,zero
  8018f0:	d0a75505 	stb	r2,-25260(gp)
		if (g91) {
  8018f4:	d0a75503 	ldbu	r2,-25260(gp)
  8018f8:	10803fcc 	andi	r2,r2,255
  8018fc:	1080201c 	xori	r2,r2,128
  801900:	10bfe004 	addi	r2,r2,-128
  801904:	10000226 	beq	r2,zero,801910 <tick+0x15d0>
			AVI_stop = (AVI_stop || 1);
  801908:	00800044 	movi	r2,1
  80190c:	d0a76285 	stb	r2,-25206(gp)
		}
		g82 = (g80 && (!(_cg80)));
  801910:	d0a77743 	ldbu	r2,-25123(gp)
  801914:	10803fcc 	andi	r2,r2,255
  801918:	1080201c 	xori	r2,r2,128
  80191c:	10bfe004 	addi	r2,r2,-128
  801920:	10000726 	beq	r2,zero,801940 <tick+0x1600>
  801924:	d0a78c83 	ldbu	r2,-25038(gp)
  801928:	10803fcc 	andi	r2,r2,255
  80192c:	1080201c 	xori	r2,r2,128
  801930:	10bfe004 	addi	r2,r2,-128
  801934:	1000021e 	bne	r2,zero,801940 <tick+0x1600>
  801938:	00800044 	movi	r2,1
  80193c:	00000106 	br	801944 <tick+0x1604>
  801940:	0005883a 	mov	r2,zero
  801944:	d0a76505 	stb	r2,-25196(gp)
		_cg82 = VPace;
  801948:	d0a79f03 	ldbu	r2,-24964(gp)
  80194c:	d0a77205 	stb	r2,-25144(gp)
		g83 = (g82 && _cg82);
  801950:	d0a76503 	ldbu	r2,-25196(gp)
  801954:	10803fcc 	andi	r2,r2,255
  801958:	1080201c 	xori	r2,r2,128
  80195c:	10bfe004 	addi	r2,r2,-128
  801960:	10000726 	beq	r2,zero,801980 <tick+0x1640>
  801964:	d0a77203 	ldbu	r2,-25144(gp)
  801968:	10803fcc 	andi	r2,r2,255
  80196c:	1080201c 	xori	r2,r2,128
  801970:	10bfe004 	addi	r2,r2,-128
  801974:	10000226 	beq	r2,zero,801980 <tick+0x1640>
  801978:	00800044 	movi	r2,1
  80197c:	00000106 	br	801984 <tick+0x1644>
  801980:	0005883a 	mov	r2,zero
  801984:	d0a75485 	stb	r2,-25262(gp)
		if (g83) {
  801988:	d0a75483 	ldbu	r2,-25262(gp)
  80198c:	10803fcc 	andi	r2,r2,255
  801990:	1080201c 	xori	r2,r2,128
  801994:	10bfe004 	addi	r2,r2,-128
  801998:	10000226 	beq	r2,zero,8019a4 <tick+0x1664>
			AVI_stop = (AVI_stop || 1);
  80199c:	00800044 	movi	r2,1
  8019a0:	d0a76285 	stb	r2,-25206(gp)
		}
		g89 = (g88 && _cg88);
  8019a4:	d0a79d03 	ldbu	r2,-24972(gp)
  8019a8:	10803fcc 	andi	r2,r2,255
  8019ac:	1080201c 	xori	r2,r2,128
  8019b0:	10bfe004 	addi	r2,r2,-128
  8019b4:	10000726 	beq	r2,zero,8019d4 <tick+0x1694>
  8019b8:	d0a79fc3 	ldbu	r2,-24961(gp)
  8019bc:	10803fcc 	andi	r2,r2,255
  8019c0:	1080201c 	xori	r2,r2,128
  8019c4:	10bfe004 	addi	r2,r2,-128
  8019c8:	10000226 	beq	r2,zero,8019d4 <tick+0x1694>
  8019cc:	00800044 	movi	r2,1
  8019d0:	00000106 	br	8019d8 <tick+0x1698>
  8019d4:	0005883a 	mov	r2,zero
  8019d8:	d0a78805 	stb	r2,-25056(gp)
		if (g89) {
  8019dc:	d0a78803 	ldbu	r2,-25056(gp)
  8019e0:	10803fcc 	andi	r2,r2,255
  8019e4:	1080201c 	xori	r2,r2,128
  8019e8:	10bfe004 	addi	r2,r2,-128
  8019ec:	10000226 	beq	r2,zero,8019f8 <tick+0x16b8>
			AVI_stop = (AVI_stop || 1);
  8019f0:	00800044 	movi	r2,1
  8019f4:	d0a76285 	stb	r2,-25206(gp)
		}
		g76 = (g75 || g97 || g99 || g81 || g87 || (g100 && (!(_cg100))) || g91
  8019f8:	d0a796c3 	ldbu	r2,-24997(gp)
				|| g95 || g83 || g89);
  8019fc:	10803fcc 	andi	r2,r2,255
  801a00:	1080201c 	xori	r2,r2,128
  801a04:	10bfe004 	addi	r2,r2,-128
  801a08:	1000321e 	bne	r2,zero,801ad4 <tick+0x1794>
		}
		g89 = (g88 && _cg88);
		if (g89) {
			AVI_stop = (AVI_stop || 1);
		}
		g76 = (g75 || g97 || g99 || g81 || g87 || (g100 && (!(_cg100))) || g91
  801a0c:	d0a76643 	ldbu	r2,-25191(gp)
  801a10:	10803fcc 	andi	r2,r2,255
  801a14:	1080201c 	xori	r2,r2,128
  801a18:	10bfe004 	addi	r2,r2,-128
  801a1c:	10002d1e 	bne	r2,zero,801ad4 <tick+0x1794>
  801a20:	d0a77903 	ldbu	r2,-25116(gp)
  801a24:	10803fcc 	andi	r2,r2,255
  801a28:	1080201c 	xori	r2,r2,128
  801a2c:	10bfe004 	addi	r2,r2,-128
  801a30:	1000281e 	bne	r2,zero,801ad4 <tick+0x1794>
  801a34:	d0a79343 	ldbu	r2,-25011(gp)
  801a38:	10803fcc 	andi	r2,r2,255
  801a3c:	1080201c 	xori	r2,r2,128
  801a40:	10bfe004 	addi	r2,r2,-128
  801a44:	1000231e 	bne	r2,zero,801ad4 <tick+0x1794>
  801a48:	d0a76143 	ldbu	r2,-25211(gp)
  801a4c:	10803fcc 	andi	r2,r2,255
  801a50:	1080201c 	xori	r2,r2,128
  801a54:	10bfe004 	addi	r2,r2,-128
  801a58:	10001e1e 	bne	r2,zero,801ad4 <tick+0x1794>
  801a5c:	d0a77883 	ldbu	r2,-25118(gp)
  801a60:	10803fcc 	andi	r2,r2,255
  801a64:	1080201c 	xori	r2,r2,128
  801a68:	10bfe004 	addi	r2,r2,-128
  801a6c:	10000526 	beq	r2,zero,801a84 <tick+0x1744>
  801a70:	d0a77c83 	ldbu	r2,-25102(gp)
  801a74:	10803fcc 	andi	r2,r2,255
  801a78:	1080201c 	xori	r2,r2,128
  801a7c:	10bfe004 	addi	r2,r2,-128
  801a80:	10001426 	beq	r2,zero,801ad4 <tick+0x1794>
  801a84:	d0a75503 	ldbu	r2,-25260(gp)
  801a88:	10803fcc 	andi	r2,r2,255
  801a8c:	1080201c 	xori	r2,r2,128
  801a90:	10bfe004 	addi	r2,r2,-128
  801a94:	10000f1e 	bne	r2,zero,801ad4 <tick+0x1794>
				|| g95 || g83 || g89);
  801a98:	d0a78943 	ldbu	r2,-25051(gp)
  801a9c:	10803fcc 	andi	r2,r2,255
  801aa0:	1080201c 	xori	r2,r2,128
  801aa4:	10bfe004 	addi	r2,r2,-128
  801aa8:	10000a1e 	bne	r2,zero,801ad4 <tick+0x1794>
  801aac:	d0a75483 	ldbu	r2,-25262(gp)
  801ab0:	10803fcc 	andi	r2,r2,255
  801ab4:	1080201c 	xori	r2,r2,128
  801ab8:	10bfe004 	addi	r2,r2,-128
  801abc:	1000051e 	bne	r2,zero,801ad4 <tick+0x1794>
  801ac0:	d0a78803 	ldbu	r2,-25056(gp)
  801ac4:	10803fcc 	andi	r2,r2,255
  801ac8:	1080201c 	xori	r2,r2,128
  801acc:	10bfe004 	addi	r2,r2,-128
  801ad0:	10000226 	beq	r2,zero,801adc <tick+0x179c>
  801ad4:	00800044 	movi	r2,1
  801ad8:	00000106 	br	801ae0 <tick+0x17a0>
  801adc:	0005883a 	mov	r2,zero
		}
		g89 = (g88 && _cg88);
		if (g89) {
			AVI_stop = (AVI_stop || 1);
		}
		g76 = (g75 || g97 || g99 || g81 || g87 || (g100 && (!(_cg100))) || g91
  801ae0:	d0a767c5 	stb	r2,-25185(gp)
				|| g95 || g83 || g89);
		g78 = (g77 && _cg77);
  801ae4:	d0a79c83 	ldbu	r2,-24974(gp)
  801ae8:	10803fcc 	andi	r2,r2,255
  801aec:	1080201c 	xori	r2,r2,128
  801af0:	10bfe004 	addi	r2,r2,-128
  801af4:	10000726 	beq	r2,zero,801b14 <tick+0x17d4>
  801af8:	d0a79883 	ldbu	r2,-24990(gp)
  801afc:	10803fcc 	andi	r2,r2,255
  801b00:	1080201c 	xori	r2,r2,128
  801b04:	10bfe004 	addi	r2,r2,-128
  801b08:	10000226 	beq	r2,zero,801b14 <tick+0x17d4>
  801b0c:	00800044 	movi	r2,1
  801b10:	00000106 	br	801b18 <tick+0x17d8>
  801b14:	0005883a 	mov	r2,zero
  801b18:	d0a77e45 	stb	r2,-25095(gp)
		if (g78) {
  801b1c:	d0a77e43 	ldbu	r2,-25095(gp)
  801b20:	10803fcc 	andi	r2,r2,255
  801b24:	1080201c 	xori	r2,r2,128
  801b28:	10bfe004 	addi	r2,r2,-128
  801b2c:	10000226 	beq	r2,zero,801b38 <tick+0x17f8>
			AVI_start = (AVI_start || 1);
  801b30:	00800044 	movi	r2,1
  801b34:	d0a76085 	stb	r2,-25214(gp)
		}
		g101 = (g100 && _cg100);
  801b38:	d0a77883 	ldbu	r2,-25118(gp)
  801b3c:	10803fcc 	andi	r2,r2,255
  801b40:	1080201c 	xori	r2,r2,128
  801b44:	10bfe004 	addi	r2,r2,-128
  801b48:	10000726 	beq	r2,zero,801b68 <tick+0x1828>
  801b4c:	d0a77c83 	ldbu	r2,-25102(gp)
  801b50:	10803fcc 	andi	r2,r2,255
  801b54:	1080201c 	xori	r2,r2,128
  801b58:	10bfe004 	addi	r2,r2,-128
  801b5c:	10000226 	beq	r2,zero,801b68 <tick+0x1828>
  801b60:	00800044 	movi	r2,1
  801b64:	00000106 	br	801b6c <tick+0x182c>
  801b68:	0005883a 	mov	r2,zero
  801b6c:	d0a77b85 	stb	r2,-25106(gp)
		if (g101) {
  801b70:	d0a77b83 	ldbu	r2,-25106(gp)
  801b74:	10803fcc 	andi	r2,r2,255
  801b78:	1080201c 	xori	r2,r2,128
  801b7c:	10bfe004 	addi	r2,r2,-128
  801b80:	10000226 	beq	r2,zero,801b8c <tick+0x184c>
			AVI_start = (AVI_start || 1);
  801b84:	00800044 	movi	r2,1
  801b88:	d0a76085 	stb	r2,-25214(gp)
		}
		g84 = (g82 && (!(_cg82)));
  801b8c:	d0a76503 	ldbu	r2,-25196(gp)
  801b90:	10803fcc 	andi	r2,r2,255
  801b94:	1080201c 	xori	r2,r2,128
  801b98:	10bfe004 	addi	r2,r2,-128
  801b9c:	10000726 	beq	r2,zero,801bbc <tick+0x187c>
  801ba0:	d0a77203 	ldbu	r2,-25144(gp)
  801ba4:	10803fcc 	andi	r2,r2,255
  801ba8:	1080201c 	xori	r2,r2,128
  801bac:	10bfe004 	addi	r2,r2,-128
  801bb0:	1000021e 	bne	r2,zero,801bbc <tick+0x187c>
  801bb4:	00800044 	movi	r2,1
  801bb8:	00000106 	br	801bc0 <tick+0x1880>
  801bbc:	0005883a 	mov	r2,zero
  801bc0:	d0a768c5 	stb	r2,-25181(gp)
		_cg84 = AVI_ex;
  801bc4:	d0a77b03 	ldbu	r2,-25108(gp)
  801bc8:	d0a76245 	stb	r2,-25207(gp)
		g92 = (g84 && (!(_cg84)));
  801bcc:	d0a768c3 	ldbu	r2,-25181(gp)
  801bd0:	10803fcc 	andi	r2,r2,255
  801bd4:	1080201c 	xori	r2,r2,128
  801bd8:	10bfe004 	addi	r2,r2,-128
  801bdc:	10000726 	beq	r2,zero,801bfc <tick+0x18bc>
  801be0:	d0a76243 	ldbu	r2,-25207(gp)
  801be4:	10803fcc 	andi	r2,r2,255
  801be8:	1080201c 	xori	r2,r2,128
  801bec:	10bfe004 	addi	r2,r2,-128
  801bf0:	1000021e 	bne	r2,zero,801bfc <tick+0x18bc>
  801bf4:	00800044 	movi	r2,1
  801bf8:	00000106 	br	801c00 <tick+0x18c0>
  801bfc:	0005883a 	mov	r2,zero
  801c00:	d0a762c5 	stb	r2,-25205(gp)
		_cg92 = URI_ex;
  801c04:	d0a78103 	ldbu	r2,-25084(gp)
  801c08:	d0a79dc5 	stb	r2,-24969(gp)
		g79 = (g101 || (g92 && (!(_cg92))) || g78);
  801c0c:	d0a77b83 	ldbu	r2,-25106(gp)
  801c10:	10803fcc 	andi	r2,r2,255
  801c14:	1080201c 	xori	r2,r2,128
  801c18:	10bfe004 	addi	r2,r2,-128
  801c1c:	10000f1e 	bne	r2,zero,801c5c <tick+0x191c>
  801c20:	d0a762c3 	ldbu	r2,-25205(gp)
  801c24:	10803fcc 	andi	r2,r2,255
  801c28:	1080201c 	xori	r2,r2,128
  801c2c:	10bfe004 	addi	r2,r2,-128
  801c30:	10000526 	beq	r2,zero,801c48 <tick+0x1908>
  801c34:	d0a79dc3 	ldbu	r2,-24969(gp)
  801c38:	10803fcc 	andi	r2,r2,255
  801c3c:	1080201c 	xori	r2,r2,128
  801c40:	10bfe004 	addi	r2,r2,-128
  801c44:	10000526 	beq	r2,zero,801c5c <tick+0x191c>
  801c48:	d0a77e43 	ldbu	r2,-25095(gp)
  801c4c:	10803fcc 	andi	r2,r2,255
  801c50:	1080201c 	xori	r2,r2,128
  801c54:	10bfe004 	addi	r2,r2,-128
  801c58:	10000226 	beq	r2,zero,801c64 <tick+0x1924>
  801c5c:	00800044 	movi	r2,1
  801c60:	00000106 	br	801c68 <tick+0x1928>
  801c64:	0005883a 	mov	r2,zero
  801c68:	d0a77405 	stb	r2,-25136(gp)
		g85 = ((g84 && _cg84) || (g90 && (!(_cg90))));
  801c6c:	d0a768c3 	ldbu	r2,-25181(gp)
  801c70:	10803fcc 	andi	r2,r2,255
  801c74:	1080201c 	xori	r2,r2,128
  801c78:	10bfe004 	addi	r2,r2,-128
  801c7c:	10000526 	beq	r2,zero,801c94 <tick+0x1954>
  801c80:	d0a76243 	ldbu	r2,-25207(gp)
  801c84:	10803fcc 	andi	r2,r2,255
  801c88:	1080201c 	xori	r2,r2,128
  801c8c:	10bfe004 	addi	r2,r2,-128
  801c90:	10000a1e 	bne	r2,zero,801cbc <tick+0x197c>
  801c94:	d0a78343 	ldbu	r2,-25075(gp)
  801c98:	10803fcc 	andi	r2,r2,255
  801c9c:	1080201c 	xori	r2,r2,128
  801ca0:	10bfe004 	addi	r2,r2,-128
  801ca4:	10000726 	beq	r2,zero,801cc4 <tick+0x1984>
  801ca8:	d0a77643 	ldbu	r2,-25127(gp)
  801cac:	10803fcc 	andi	r2,r2,255
  801cb0:	1080201c 	xori	r2,r2,128
  801cb4:	10bfe004 	addi	r2,r2,-128
  801cb8:	1000021e 	bne	r2,zero,801cc4 <tick+0x1984>
  801cbc:	00800044 	movi	r2,1
  801cc0:	00000106 	br	801cc8 <tick+0x1988>
  801cc4:	0005883a 	mov	r2,zero
  801cc8:	d0a759c5 	stb	r2,-25241(gp)
		g93 = ((g92 && _cg92) || (g98 && (!(_cg98))));
  801ccc:	d0a762c3 	ldbu	r2,-25205(gp)
  801cd0:	10803fcc 	andi	r2,r2,255
  801cd4:	1080201c 	xori	r2,r2,128
  801cd8:	10bfe004 	addi	r2,r2,-128
  801cdc:	10000526 	beq	r2,zero,801cf4 <tick+0x19b4>
  801ce0:	d0a79dc3 	ldbu	r2,-24969(gp)
  801ce4:	10803fcc 	andi	r2,r2,255
  801ce8:	1080201c 	xori	r2,r2,128
  801cec:	10bfe004 	addi	r2,r2,-128
  801cf0:	10000a1e 	bne	r2,zero,801d1c <tick+0x19dc>
  801cf4:	d0a78e03 	ldbu	r2,-25032(gp)
  801cf8:	10803fcc 	andi	r2,r2,255
  801cfc:	1080201c 	xori	r2,r2,128
  801d00:	10bfe004 	addi	r2,r2,-128
  801d04:	10000726 	beq	r2,zero,801d24 <tick+0x19e4>
  801d08:	d0a765c3 	ldbu	r2,-25193(gp)
  801d0c:	10803fcc 	andi	r2,r2,255
  801d10:	1080201c 	xori	r2,r2,128
  801d14:	10bfe004 	addi	r2,r2,-128
  801d18:	1000021e 	bne	r2,zero,801d24 <tick+0x19e4>
  801d1c:	00800044 	movi	r2,1
  801d20:	00000106 	br	801d28 <tick+0x19e8>
  801d24:	0005883a 	mov	r2,zero
  801d28:	d0a78545 	stb	r2,-25067(gp)
		g103 = g1;
  801d2c:	d0a76303 	ldbu	r2,-25204(gp)
  801d30:	d0a75945 	stb	r2,-25243(gp)
		g107 = (PRE_g106);
  801d34:	d0a78203 	ldbu	r2,-25080(gp)
  801d38:	d0a78b85 	stb	r2,-25042(gp)
		_cg107 = AVI_ex;
  801d3c:	d0a77b03 	ldbu	r2,-25108(gp)
  801d40:	d0a77345 	stb	r2,-25139(gp)
		g108 = (g107 && (!(_cg107)));
  801d44:	d0a78b83 	ldbu	r2,-25042(gp)
  801d48:	10803fcc 	andi	r2,r2,255
  801d4c:	1080201c 	xori	r2,r2,128
  801d50:	10bfe004 	addi	r2,r2,-128
  801d54:	10000726 	beq	r2,zero,801d74 <tick+0x1a34>
  801d58:	d0a77343 	ldbu	r2,-25139(gp)
  801d5c:	10803fcc 	andi	r2,r2,255
  801d60:	1080201c 	xori	r2,r2,128
  801d64:	10bfe004 	addi	r2,r2,-128
  801d68:	1000021e 	bne	r2,zero,801d74 <tick+0x1a34>
  801d6c:	00800044 	movi	r2,1
  801d70:	00000106 	br	801d78 <tick+0x1a38>
  801d74:	0005883a 	mov	r2,zero
  801d78:	d0a75605 	stb	r2,-25256(gp)
		_cg108 = AVI_stop;
  801d7c:	d0a76283 	ldbu	r2,-25206(gp)
  801d80:	d0a79485 	stb	r2,-25006(gp)
		g105 = (PRE_g104);
  801d84:	d0a76c03 	ldbu	r2,-25168(gp)
  801d88:	d0a76f85 	stb	r2,-25154(gp)
		g105b = g105;
  801d8c:	d0a76f83 	ldbu	r2,-25154(gp)
  801d90:	d0a79805 	stb	r2,-24992(gp)
		_cg105 = AVI_start;
  801d94:	d0a76083 	ldbu	r2,-25214(gp)
  801d98:	d0a7a605 	stb	r2,-24936(gp)
		g104 = ((g108 && _cg108) || g103 || (g107 && _cg107)
  801d9c:	d0a75603 	ldbu	r2,-25256(gp)
				|| (g105b && (!(_cg105))));
  801da0:	10803fcc 	andi	r2,r2,255
  801da4:	1080201c 	xori	r2,r2,128
  801da8:	10bfe004 	addi	r2,r2,-128
  801dac:	10000526 	beq	r2,zero,801dc4 <tick+0x1a84>
		g108 = (g107 && (!(_cg107)));
		_cg108 = AVI_stop;
		g105 = (PRE_g104);
		g105b = g105;
		_cg105 = AVI_start;
		g104 = ((g108 && _cg108) || g103 || (g107 && _cg107)
  801db0:	d0a79483 	ldbu	r2,-25006(gp)
  801db4:	10803fcc 	andi	r2,r2,255
  801db8:	1080201c 	xori	r2,r2,128
  801dbc:	10bfe004 	addi	r2,r2,-128
  801dc0:	1000191e 	bne	r2,zero,801e28 <tick+0x1ae8>
  801dc4:	d0a75943 	ldbu	r2,-25243(gp)
  801dc8:	10803fcc 	andi	r2,r2,255
  801dcc:	1080201c 	xori	r2,r2,128
  801dd0:	10bfe004 	addi	r2,r2,-128
  801dd4:	1000141e 	bne	r2,zero,801e28 <tick+0x1ae8>
  801dd8:	d0a78b83 	ldbu	r2,-25042(gp)
  801ddc:	10803fcc 	andi	r2,r2,255
  801de0:	1080201c 	xori	r2,r2,128
  801de4:	10bfe004 	addi	r2,r2,-128
  801de8:	10000526 	beq	r2,zero,801e00 <tick+0x1ac0>
  801dec:	d0a77343 	ldbu	r2,-25139(gp)
  801df0:	10803fcc 	andi	r2,r2,255
  801df4:	1080201c 	xori	r2,r2,128
  801df8:	10bfe004 	addi	r2,r2,-128
  801dfc:	10000a1e 	bne	r2,zero,801e28 <tick+0x1ae8>
				|| (g105b && (!(_cg105))));
  801e00:	d0a79803 	ldbu	r2,-24992(gp)
  801e04:	10803fcc 	andi	r2,r2,255
  801e08:	1080201c 	xori	r2,r2,128
  801e0c:	10bfe004 	addi	r2,r2,-128
  801e10:	10000726 	beq	r2,zero,801e30 <tick+0x1af0>
  801e14:	d0a7a603 	ldbu	r2,-24936(gp)
  801e18:	10803fcc 	andi	r2,r2,255
  801e1c:	1080201c 	xori	r2,r2,128
  801e20:	10bfe004 	addi	r2,r2,-128
  801e24:	1000021e 	bne	r2,zero,801e30 <tick+0x1af0>
  801e28:	00800044 	movi	r2,1
  801e2c:	00000106 	br	801e34 <tick+0x1af4>
  801e30:	0005883a 	mov	r2,zero
		g108 = (g107 && (!(_cg107)));
		_cg108 = AVI_stop;
		g105 = (PRE_g104);
		g105b = g105;
		_cg105 = AVI_start;
		g104 = ((g108 && _cg108) || g103 || (g107 && _cg107)
  801e34:	d0a78d85 	stb	r2,-25034(gp)
				|| (g105b && (!(_cg105))));
		g106 = ((g105b && _cg105) || (g108 && (!(_cg108))));
  801e38:	d0a79803 	ldbu	r2,-24992(gp)
  801e3c:	10803fcc 	andi	r2,r2,255
  801e40:	1080201c 	xori	r2,r2,128
  801e44:	10bfe004 	addi	r2,r2,-128
  801e48:	10000526 	beq	r2,zero,801e60 <tick+0x1b20>
  801e4c:	d0a7a603 	ldbu	r2,-24936(gp)
  801e50:	10803fcc 	andi	r2,r2,255
  801e54:	1080201c 	xori	r2,r2,128
  801e58:	10bfe004 	addi	r2,r2,-128
  801e5c:	10000a1e 	bne	r2,zero,801e88 <tick+0x1b48>
  801e60:	d0a75603 	ldbu	r2,-25256(gp)
  801e64:	10803fcc 	andi	r2,r2,255
  801e68:	1080201c 	xori	r2,r2,128
  801e6c:	10bfe004 	addi	r2,r2,-128
  801e70:	10000726 	beq	r2,zero,801e90 <tick+0x1b50>
  801e74:	d0a79483 	ldbu	r2,-25006(gp)
  801e78:	10803fcc 	andi	r2,r2,255
  801e7c:	1080201c 	xori	r2,r2,128
  801e80:	10bfe004 	addi	r2,r2,-128
  801e84:	1000021e 	bne	r2,zero,801e90 <tick+0x1b50>
  801e88:	00800044 	movi	r2,1
  801e8c:	00000106 	br	801e94 <tick+0x1b54>
  801e90:	0005883a 	mov	r2,zero
  801e94:	d0a7a305 	stb	r2,-24948(gp)
		g110 = g1;
  801e98:	d0a76303 	ldbu	r2,-25204(gp)
  801e9c:	d0a77545 	stb	r2,-25131(gp)
		g112 = (PRE_g111);
  801ea0:	d0a77283 	ldbu	r2,-25142(gp)
  801ea4:	d0a75805 	stb	r2,-25248(gp)
		_cg112 = VSense;
  801ea8:	d0a77dc3 	ldbu	r2,-25097(gp)
  801eac:	d0a78d05 	stb	r2,-25036(gp)
		g121 = (g112 && (!(_cg112)));
  801eb0:	d0a75803 	ldbu	r2,-25248(gp)
  801eb4:	10803fcc 	andi	r2,r2,255
  801eb8:	1080201c 	xori	r2,r2,128
  801ebc:	10bfe004 	addi	r2,r2,-128
  801ec0:	10000726 	beq	r2,zero,801ee0 <tick+0x1ba0>
  801ec4:	d0a78d03 	ldbu	r2,-25036(gp)
  801ec8:	10803fcc 	andi	r2,r2,255
  801ecc:	1080201c 	xori	r2,r2,128
  801ed0:	10bfe004 	addi	r2,r2,-128
  801ed4:	1000021e 	bne	r2,zero,801ee0 <tick+0x1ba0>
  801ed8:	00800044 	movi	r2,1
  801edc:	00000106 	br	801ee4 <tick+0x1ba4>
  801ee0:	0005883a 	mov	r2,zero
  801ee4:	d0a79ec5 	stb	r2,-24965(gp)
		_cg121 = VPace;
  801ee8:	d0a79f03 	ldbu	r2,-24964(gp)
  801eec:	d0a78505 	stb	r2,-25068(gp)
		g118 = (g117 && _cg117);
  801ef0:	d0a771c3 	ldbu	r2,-25145(gp)
  801ef4:	10803fcc 	andi	r2,r2,255
  801ef8:	1080201c 	xori	r2,r2,128
  801efc:	10bfe004 	addi	r2,r2,-128
  801f00:	10000726 	beq	r2,zero,801f20 <tick+0x1be0>
  801f04:	d0a78c03 	ldbu	r2,-25040(gp)
  801f08:	10803fcc 	andi	r2,r2,255
  801f0c:	1080201c 	xori	r2,r2,128
  801f10:	10bfe004 	addi	r2,r2,-128
  801f14:	10000226 	beq	r2,zero,801f20 <tick+0x1be0>
  801f18:	00800044 	movi	r2,1
  801f1c:	00000106 	br	801f24 <tick+0x1be4>
  801f20:	0005883a 	mov	r2,zero
  801f24:	d0a76a05 	stb	r2,-25176(gp)
		if (g118) {
  801f28:	d0a76a03 	ldbu	r2,-25176(gp)
  801f2c:	10803fcc 	andi	r2,r2,255
  801f30:	1080201c 	xori	r2,r2,128
  801f34:	10bfe004 	addi	r2,r2,-128
  801f38:	10000226 	beq	r2,zero,801f44 <tick+0x1c04>
			AEI_stop = (AEI_stop || 1);
  801f3c:	00800044 	movi	r2,1
  801f40:	d0a7a205 	stb	r2,-24952(gp)
		}
		g111 = (g110 || g120 || (g121 && (!(_cg121))) || g118);
  801f44:	d0a77543 	ldbu	r2,-25131(gp)
  801f48:	10803fcc 	andi	r2,r2,255
  801f4c:	1080201c 	xori	r2,r2,128
  801f50:	10bfe004 	addi	r2,r2,-128
  801f54:	1000141e 	bne	r2,zero,801fa8 <tick+0x1c68>
  801f58:	d0a7a043 	ldbu	r2,-24959(gp)
  801f5c:	10803fcc 	andi	r2,r2,255
  801f60:	1080201c 	xori	r2,r2,128
  801f64:	10bfe004 	addi	r2,r2,-128
  801f68:	10000f1e 	bne	r2,zero,801fa8 <tick+0x1c68>
  801f6c:	d0a79ec3 	ldbu	r2,-24965(gp)
  801f70:	10803fcc 	andi	r2,r2,255
  801f74:	1080201c 	xori	r2,r2,128
  801f78:	10bfe004 	addi	r2,r2,-128
  801f7c:	10000526 	beq	r2,zero,801f94 <tick+0x1c54>
  801f80:	d0a78503 	ldbu	r2,-25068(gp)
  801f84:	10803fcc 	andi	r2,r2,255
  801f88:	1080201c 	xori	r2,r2,128
  801f8c:	10bfe004 	addi	r2,r2,-128
  801f90:	10000526 	beq	r2,zero,801fa8 <tick+0x1c68>
  801f94:	d0a76a03 	ldbu	r2,-25176(gp)
  801f98:	10803fcc 	andi	r2,r2,255
  801f9c:	1080201c 	xori	r2,r2,128
  801fa0:	10bfe004 	addi	r2,r2,-128
  801fa4:	10000226 	beq	r2,zero,801fb0 <tick+0x1c70>
  801fa8:	00800044 	movi	r2,1
  801fac:	00000106 	br	801fb4 <tick+0x1c74>
  801fb0:	0005883a 	mov	r2,zero
  801fb4:	d0a756c5 	stb	r2,-25253(gp)
		g113 = (g112 && _cg112);
  801fb8:	d0a75803 	ldbu	r2,-25248(gp)
  801fbc:	10803fcc 	andi	r2,r2,255
  801fc0:	1080201c 	xori	r2,r2,128
  801fc4:	10bfe004 	addi	r2,r2,-128
  801fc8:	10000726 	beq	r2,zero,801fe8 <tick+0x1ca8>
  801fcc:	d0a78d03 	ldbu	r2,-25036(gp)
  801fd0:	10803fcc 	andi	r2,r2,255
  801fd4:	1080201c 	xori	r2,r2,128
  801fd8:	10bfe004 	addi	r2,r2,-128
  801fdc:	10000226 	beq	r2,zero,801fe8 <tick+0x1ca8>
  801fe0:	00800044 	movi	r2,1
  801fe4:	00000106 	br	801fec <tick+0x1cac>
  801fe8:	0005883a 	mov	r2,zero
  801fec:	d0a78bc5 	stb	r2,-25041(gp)
		if (g113) {
  801ff0:	d0a78bc3 	ldbu	r2,-25041(gp)
  801ff4:	10803fcc 	andi	r2,r2,255
  801ff8:	1080201c 	xori	r2,r2,128
  801ffc:	10bfe004 	addi	r2,r2,-128
  802000:	10000226 	beq	r2,zero,80200c <tick+0x1ccc>
			AEI_start = (AEI_start || 1);
  802004:	00800044 	movi	r2,1
  802008:	d0a78f45 	stb	r2,-25027(gp)
		}
		g122 = (g121 && _cg121);
  80200c:	d0a79ec3 	ldbu	r2,-24965(gp)
  802010:	10803fcc 	andi	r2,r2,255
  802014:	1080201c 	xori	r2,r2,128
  802018:	10bfe004 	addi	r2,r2,-128
  80201c:	10000726 	beq	r2,zero,80203c <tick+0x1cfc>
  802020:	d0a78503 	ldbu	r2,-25068(gp)
  802024:	10803fcc 	andi	r2,r2,255
  802028:	1080201c 	xori	r2,r2,128
  80202c:	10bfe004 	addi	r2,r2,-128
  802030:	10000226 	beq	r2,zero,80203c <tick+0x1cfc>
  802034:	00800044 	movi	r2,1
  802038:	00000106 	br	802040 <tick+0x1d00>
  80203c:	0005883a 	mov	r2,zero
  802040:	d0a78085 	stb	r2,-25086(gp)
		if (g122) {
  802044:	d0a78083 	ldbu	r2,-25086(gp)
  802048:	10803fcc 	andi	r2,r2,255
  80204c:	1080201c 	xori	r2,r2,128
  802050:	10bfe004 	addi	r2,r2,-128
  802054:	10000226 	beq	r2,zero,802060 <tick+0x1d20>
			AEI_start = (AEI_start || 1);
  802058:	00800044 	movi	r2,1
  80205c:	d0a78f45 	stb	r2,-25027(gp)
		}
		g115 = (PRE_g114);
  802060:	d0a75a83 	ldbu	r2,-25238(gp)
  802064:	d0a76045 	stb	r2,-25215(gp)
		_cg115 = PVARP_ex;
  802068:	d0a79383 	ldbu	r2,-25010(gp)
  80206c:	d0a78ac5 	stb	r2,-25045(gp)
		g114 = (g113 || g122 || (g115 && (!(_cg115))));
  802070:	d0a78bc3 	ldbu	r2,-25041(gp)
  802074:	10803fcc 	andi	r2,r2,255
  802078:	1080201c 	xori	r2,r2,128
  80207c:	10bfe004 	addi	r2,r2,-128
  802080:	10000f1e 	bne	r2,zero,8020c0 <tick+0x1d80>
  802084:	d0a78083 	ldbu	r2,-25086(gp)
  802088:	10803fcc 	andi	r2,r2,255
  80208c:	1080201c 	xori	r2,r2,128
  802090:	10bfe004 	addi	r2,r2,-128
  802094:	10000a1e 	bne	r2,zero,8020c0 <tick+0x1d80>
  802098:	d0a76043 	ldbu	r2,-25215(gp)
  80209c:	10803fcc 	andi	r2,r2,255
  8020a0:	1080201c 	xori	r2,r2,128
  8020a4:	10bfe004 	addi	r2,r2,-128
  8020a8:	10000726 	beq	r2,zero,8020c8 <tick+0x1d88>
  8020ac:	d0a78ac3 	ldbu	r2,-25045(gp)
  8020b0:	10803fcc 	andi	r2,r2,255
  8020b4:	1080201c 	xori	r2,r2,128
  8020b8:	10bfe004 	addi	r2,r2,-128
  8020bc:	1000021e 	bne	r2,zero,8020c8 <tick+0x1d88>
  8020c0:	00800044 	movi	r2,1
  8020c4:	00000106 	br	8020cc <tick+0x1d8c>
  8020c8:	0005883a 	mov	r2,zero
  8020cc:	d0a77cc5 	stb	r2,-25101(gp)
		g116 = ((g115 && _cg115) || (g119 && (!(_cg119))));
  8020d0:	d0a76043 	ldbu	r2,-25215(gp)
  8020d4:	10803fcc 	andi	r2,r2,255
  8020d8:	1080201c 	xori	r2,r2,128
  8020dc:	10bfe004 	addi	r2,r2,-128
  8020e0:	10000526 	beq	r2,zero,8020f8 <tick+0x1db8>
  8020e4:	d0a78ac3 	ldbu	r2,-25045(gp)
  8020e8:	10803fcc 	andi	r2,r2,255
  8020ec:	1080201c 	xori	r2,r2,128
  8020f0:	10bfe004 	addi	r2,r2,-128
  8020f4:	10000a1e 	bne	r2,zero,802120 <tick+0x1de0>
  8020f8:	d0a785c3 	ldbu	r2,-25065(gp)
  8020fc:	10803fcc 	andi	r2,r2,255
  802100:	1080201c 	xori	r2,r2,128
  802104:	10bfe004 	addi	r2,r2,-128
  802108:	10000726 	beq	r2,zero,802128 <tick+0x1de8>
  80210c:	d0a76983 	ldbu	r2,-25178(gp)
  802110:	10803fcc 	andi	r2,r2,255
  802114:	1080201c 	xori	r2,r2,128
  802118:	10bfe004 	addi	r2,r2,-128
  80211c:	1000021e 	bne	r2,zero,802128 <tick+0x1de8>
  802120:	00800044 	movi	r2,1
  802124:	00000106 	br	80212c <tick+0x1dec>
  802128:	0005883a 	mov	r2,zero
  80212c:	d0a79205 	stb	r2,-25016(gp)
		g124 = g1;
  802130:	d0a76303 	ldbu	r2,-25204(gp)
  802134:	d0a79445 	stb	r2,-25007(gp)
		g128 = (PRE_g127);
  802138:	d0a79d83 	ldbu	r2,-24970(gp)
  80213c:	d0a77785 	stb	r2,-25122(gp)
		_cg128 = AEI_ex;
  802140:	d0a75883 	ldbu	r2,-25246(gp)
  802144:	d0a75fc5 	stb	r2,-25217(gp)
		g126 = (PRE_g125);
  802148:	d0a78703 	ldbu	r2,-25060(gp)
  80214c:	d0a764c5 	stb	r2,-25197(gp)
		g126b = g126;
  802150:	d0a764c3 	ldbu	r2,-25197(gp)
  802154:	d0a766c5 	stb	r2,-25189(gp)
		_cg126 = AEI_start;
  802158:	d0a78f43 	ldbu	r2,-25027(gp)
  80215c:	d0a76ac5 	stb	r2,-25173(gp)
		g129 = (g128 && (!(_cg128)));
  802160:	d0a77783 	ldbu	r2,-25122(gp)
  802164:	10803fcc 	andi	r2,r2,255
  802168:	1080201c 	xori	r2,r2,128
  80216c:	10bfe004 	addi	r2,r2,-128
  802170:	10000726 	beq	r2,zero,802190 <tick+0x1e50>
  802174:	d0a75fc3 	ldbu	r2,-25217(gp)
  802178:	10803fcc 	andi	r2,r2,255
  80217c:	1080201c 	xori	r2,r2,128
  802180:	10bfe004 	addi	r2,r2,-128
  802184:	1000021e 	bne	r2,zero,802190 <tick+0x1e50>
  802188:	00800044 	movi	r2,1
  80218c:	00000106 	br	802194 <tick+0x1e54>
  802190:	0005883a 	mov	r2,zero
  802194:	d0a77d45 	stb	r2,-25099(gp)
		_cg129 = AEI_stop;
  802198:	d0a7a203 	ldbu	r2,-24952(gp)
  80219c:	d0a795c5 	stb	r2,-25001(gp)
		g125 = ((g128 && _cg128) || (g126b && (!(_cg126))) || (g129 && _cg129)
  8021a0:	d0a77783 	ldbu	r2,-25122(gp)
				|| g124);
  8021a4:	10803fcc 	andi	r2,r2,255
  8021a8:	1080201c 	xori	r2,r2,128
  8021ac:	10bfe004 	addi	r2,r2,-128
  8021b0:	10000526 	beq	r2,zero,8021c8 <tick+0x1e88>
		g126 = (PRE_g125);
		g126b = g126;
		_cg126 = AEI_start;
		g129 = (g128 && (!(_cg128)));
		_cg129 = AEI_stop;
		g125 = ((g128 && _cg128) || (g126b && (!(_cg126))) || (g129 && _cg129)
  8021b4:	d0a75fc3 	ldbu	r2,-25217(gp)
  8021b8:	10803fcc 	andi	r2,r2,255
  8021bc:	1080201c 	xori	r2,r2,128
  8021c0:	10bfe004 	addi	r2,r2,-128
  8021c4:	1000191e 	bne	r2,zero,80222c <tick+0x1eec>
  8021c8:	d0a766c3 	ldbu	r2,-25189(gp)
  8021cc:	10803fcc 	andi	r2,r2,255
  8021d0:	1080201c 	xori	r2,r2,128
  8021d4:	10bfe004 	addi	r2,r2,-128
  8021d8:	10000526 	beq	r2,zero,8021f0 <tick+0x1eb0>
  8021dc:	d0a76ac3 	ldbu	r2,-25173(gp)
  8021e0:	10803fcc 	andi	r2,r2,255
  8021e4:	1080201c 	xori	r2,r2,128
  8021e8:	10bfe004 	addi	r2,r2,-128
  8021ec:	10000f26 	beq	r2,zero,80222c <tick+0x1eec>
  8021f0:	d0a77d43 	ldbu	r2,-25099(gp)
  8021f4:	10803fcc 	andi	r2,r2,255
  8021f8:	1080201c 	xori	r2,r2,128
  8021fc:	10bfe004 	addi	r2,r2,-128
  802200:	10000526 	beq	r2,zero,802218 <tick+0x1ed8>
  802204:	d0a795c3 	ldbu	r2,-25001(gp)
  802208:	10803fcc 	andi	r2,r2,255
  80220c:	1080201c 	xori	r2,r2,128
  802210:	10bfe004 	addi	r2,r2,-128
  802214:	1000051e 	bne	r2,zero,80222c <tick+0x1eec>
				|| g124);
  802218:	d0a79443 	ldbu	r2,-25007(gp)
  80221c:	10803fcc 	andi	r2,r2,255
  802220:	1080201c 	xori	r2,r2,128
  802224:	10bfe004 	addi	r2,r2,-128
  802228:	10000226 	beq	r2,zero,802234 <tick+0x1ef4>
  80222c:	00800044 	movi	r2,1
  802230:	00000106 	br	802238 <tick+0x1ef8>
  802234:	0005883a 	mov	r2,zero
		g126 = (PRE_g125);
		g126b = g126;
		_cg126 = AEI_start;
		g129 = (g128 && (!(_cg128)));
		_cg129 = AEI_stop;
		g125 = ((g128 && _cg128) || (g126b && (!(_cg126))) || (g129 && _cg129)
  802238:	d0a79c45 	stb	r2,-24975(gp)
				|| g124);
		g127 = ((g126b && _cg126) || (g129 && (!(_cg129))));
  80223c:	d0a766c3 	ldbu	r2,-25189(gp)
  802240:	10803fcc 	andi	r2,r2,255
  802244:	1080201c 	xori	r2,r2,128
  802248:	10bfe004 	addi	r2,r2,-128
  80224c:	10000526 	beq	r2,zero,802264 <tick+0x1f24>
  802250:	d0a76ac3 	ldbu	r2,-25173(gp)
  802254:	10803fcc 	andi	r2,r2,255
  802258:	1080201c 	xori	r2,r2,128
  80225c:	10bfe004 	addi	r2,r2,-128
  802260:	10000a1e 	bne	r2,zero,80228c <tick+0x1f4c>
  802264:	d0a77d43 	ldbu	r2,-25099(gp)
  802268:	10803fcc 	andi	r2,r2,255
  80226c:	1080201c 	xori	r2,r2,128
  802270:	10bfe004 	addi	r2,r2,-128
  802274:	10000726 	beq	r2,zero,802294 <tick+0x1f54>
  802278:	d0a795c3 	ldbu	r2,-25001(gp)
  80227c:	10803fcc 	andi	r2,r2,255
  802280:	1080201c 	xori	r2,r2,128
  802284:	10bfe004 	addi	r2,r2,-128
  802288:	1000021e 	bne	r2,zero,802294 <tick+0x1f54>
  80228c:	00800044 	movi	r2,1
  802290:	00000106 	br	802298 <tick+0x1f58>
  802294:	0005883a 	mov	r2,zero
  802298:	d0a75b05 	stb	r2,-25236(gp)
		g131 = g1;
  80229c:	d0a76303 	ldbu	r2,-25204(gp)
  8022a0:	d0a77d85 	stb	r2,-25098(gp)
		g136 = (PRE_g135);
  8022a4:	d0a7a3c3 	ldbu	r2,-24945(gp)
  8022a8:	d0a777c5 	stb	r2,-25121(gp)
		_cg136 = PVARP_ex;
  8022ac:	d0a79383 	ldbu	r2,-25010(gp)
  8022b0:	d0a78285 	stb	r2,-25078(gp)
		g133 = (PRE_g132);
  8022b4:	d0a7a403 	ldbu	r2,-24944(gp)
  8022b8:	d0a7a1c5 	stb	r2,-24953(gp)
		_cg133 = VSense;
  8022bc:	d0a77dc3 	ldbu	r2,-25097(gp)
  8022c0:	d0a78045 	stb	r2,-25087(gp)
		g137 = (g133 && (!(_cg133)));
  8022c4:	d0a7a1c3 	ldbu	r2,-24953(gp)
  8022c8:	10803fcc 	andi	r2,r2,255
  8022cc:	1080201c 	xori	r2,r2,128
  8022d0:	10bfe004 	addi	r2,r2,-128
  8022d4:	10000726 	beq	r2,zero,8022f4 <tick+0x1fb4>
  8022d8:	d0a78043 	ldbu	r2,-25087(gp)
  8022dc:	10803fcc 	andi	r2,r2,255
  8022e0:	1080201c 	xori	r2,r2,128
  8022e4:	10bfe004 	addi	r2,r2,-128
  8022e8:	1000021e 	bne	r2,zero,8022f4 <tick+0x1fb4>
  8022ec:	00800044 	movi	r2,1
  8022f0:	00000106 	br	8022f8 <tick+0x1fb8>
  8022f4:	0005883a 	mov	r2,zero
  8022f8:	d0a79585 	stb	r2,-25002(gp)
		_cg137 = VPace;
  8022fc:	d0a79f03 	ldbu	r2,-24964(gp)
  802300:	d0a77a05 	stb	r2,-25112(gp)
		g132 = ((g136 && _cg136) || g131 || (g137 && (!(_cg137))));
  802304:	d0a777c3 	ldbu	r2,-25121(gp)
  802308:	10803fcc 	andi	r2,r2,255
  80230c:	1080201c 	xori	r2,r2,128
  802310:	10bfe004 	addi	r2,r2,-128
  802314:	10000526 	beq	r2,zero,80232c <tick+0x1fec>
  802318:	d0a78283 	ldbu	r2,-25078(gp)
  80231c:	10803fcc 	andi	r2,r2,255
  802320:	1080201c 	xori	r2,r2,128
  802324:	10bfe004 	addi	r2,r2,-128
  802328:	10000f1e 	bne	r2,zero,802368 <tick+0x2028>
  80232c:	d0a77d83 	ldbu	r2,-25098(gp)
  802330:	10803fcc 	andi	r2,r2,255
  802334:	1080201c 	xori	r2,r2,128
  802338:	10bfe004 	addi	r2,r2,-128
  80233c:	10000a1e 	bne	r2,zero,802368 <tick+0x2028>
  802340:	d0a79583 	ldbu	r2,-25002(gp)
  802344:	10803fcc 	andi	r2,r2,255
  802348:	1080201c 	xori	r2,r2,128
  80234c:	10bfe004 	addi	r2,r2,-128
  802350:	10000726 	beq	r2,zero,802370 <tick+0x2030>
  802354:	d0a77a03 	ldbu	r2,-25112(gp)
  802358:	10803fcc 	andi	r2,r2,255
  80235c:	1080201c 	xori	r2,r2,128
  802360:	10bfe004 	addi	r2,r2,-128
  802364:	1000021e 	bne	r2,zero,802370 <tick+0x2030>
  802368:	00800044 	movi	r2,1
  80236c:	00000106 	br	802374 <tick+0x2034>
  802370:	0005883a 	mov	r2,zero
  802374:	d0a76c85 	stb	r2,-25166(gp)
		g134 = (g133 && _cg133);
  802378:	d0a7a1c3 	ldbu	r2,-24953(gp)
  80237c:	10803fcc 	andi	r2,r2,255
  802380:	1080201c 	xori	r2,r2,128
  802384:	10bfe004 	addi	r2,r2,-128
  802388:	10000726 	beq	r2,zero,8023a8 <tick+0x2068>
  80238c:	d0a78043 	ldbu	r2,-25087(gp)
  802390:	10803fcc 	andi	r2,r2,255
  802394:	1080201c 	xori	r2,r2,128
  802398:	10bfe004 	addi	r2,r2,-128
  80239c:	10000226 	beq	r2,zero,8023a8 <tick+0x2068>
  8023a0:	00800044 	movi	r2,1
  8023a4:	00000106 	br	8023ac <tick+0x206c>
  8023a8:	0005883a 	mov	r2,zero
  8023ac:	d0a78245 	stb	r2,-25079(gp)
		if (g134) {
  8023b0:	d0a78243 	ldbu	r2,-25079(gp)
  8023b4:	10803fcc 	andi	r2,r2,255
  8023b8:	1080201c 	xori	r2,r2,128
  8023bc:	10bfe004 	addi	r2,r2,-128
  8023c0:	10000226 	beq	r2,zero,8023cc <tick+0x208c>
			PVARP_start = (PVARP_start || 1);
  8023c4:	00800044 	movi	r2,1
  8023c8:	d0a788c5 	stb	r2,-25053(gp)
		}
		g138 = (g137 && _cg137);
  8023cc:	d0a79583 	ldbu	r2,-25002(gp)
  8023d0:	10803fcc 	andi	r2,r2,255
  8023d4:	1080201c 	xori	r2,r2,128
  8023d8:	10bfe004 	addi	r2,r2,-128
  8023dc:	10000726 	beq	r2,zero,8023fc <tick+0x20bc>
  8023e0:	d0a77a03 	ldbu	r2,-25112(gp)
  8023e4:	10803fcc 	andi	r2,r2,255
  8023e8:	1080201c 	xori	r2,r2,128
  8023ec:	10bfe004 	addi	r2,r2,-128
  8023f0:	10000226 	beq	r2,zero,8023fc <tick+0x20bc>
  8023f4:	00800044 	movi	r2,1
  8023f8:	00000106 	br	802400 <tick+0x20c0>
  8023fc:	0005883a 	mov	r2,zero
  802400:	d0a78a45 	stb	r2,-25047(gp)
		if (g138) {
  802404:	d0a78a43 	ldbu	r2,-25047(gp)
  802408:	10803fcc 	andi	r2,r2,255
  80240c:	1080201c 	xori	r2,r2,128
  802410:	10bfe004 	addi	r2,r2,-128
  802414:	10000226 	beq	r2,zero,802420 <tick+0x20e0>
			PVARP_start = (PVARP_start || 1);
  802418:	00800044 	movi	r2,1
  80241c:	d0a788c5 	stb	r2,-25053(gp)
		}
		g135 = ((g136 && (!(_cg136))) || g138 || g134);
  802420:	d0a777c3 	ldbu	r2,-25121(gp)
  802424:	10803fcc 	andi	r2,r2,255
  802428:	1080201c 	xori	r2,r2,128
  80242c:	10bfe004 	addi	r2,r2,-128
  802430:	10000526 	beq	r2,zero,802448 <tick+0x2108>
  802434:	d0a78283 	ldbu	r2,-25078(gp)
  802438:	10803fcc 	andi	r2,r2,255
  80243c:	1080201c 	xori	r2,r2,128
  802440:	10bfe004 	addi	r2,r2,-128
  802444:	10000a26 	beq	r2,zero,802470 <tick+0x2130>
  802448:	d0a78a43 	ldbu	r2,-25047(gp)
  80244c:	10803fcc 	andi	r2,r2,255
  802450:	1080201c 	xori	r2,r2,128
  802454:	10bfe004 	addi	r2,r2,-128
  802458:	1000051e 	bne	r2,zero,802470 <tick+0x2130>
  80245c:	d0a78243 	ldbu	r2,-25079(gp)
  802460:	10803fcc 	andi	r2,r2,255
  802464:	1080201c 	xori	r2,r2,128
  802468:	10bfe004 	addi	r2,r2,-128
  80246c:	10000226 	beq	r2,zero,802478 <tick+0x2138>
  802470:	00800044 	movi	r2,1
  802474:	00000106 	br	80247c <tick+0x213c>
  802478:	0005883a 	mov	r2,zero
  80247c:	d0a76385 	stb	r2,-25202(gp)
		g140 = g1;
  802480:	d0a76303 	ldbu	r2,-25204(gp)
  802484:	d0a75f85 	stb	r2,-25218(gp)
		g144 = (PRE_g143);
  802488:	d0a77803 	ldbu	r2,-25120(gp)
  80248c:	d0a77b45 	stb	r2,-25107(gp)
		_cg144 = PVARP_ex;
  802490:	d0a79383 	ldbu	r2,-25010(gp)
  802494:	d0a76005 	stb	r2,-25216(gp)
		g145 = (g144 && (!(_cg144)));
  802498:	d0a77b43 	ldbu	r2,-25107(gp)
  80249c:	10803fcc 	andi	r2,r2,255
  8024a0:	1080201c 	xori	r2,r2,128
  8024a4:	10bfe004 	addi	r2,r2,-128
  8024a8:	10000726 	beq	r2,zero,8024c8 <tick+0x2188>
  8024ac:	d0a76003 	ldbu	r2,-25216(gp)
  8024b0:	10803fcc 	andi	r2,r2,255
  8024b4:	1080201c 	xori	r2,r2,128
  8024b8:	10bfe004 	addi	r2,r2,-128
  8024bc:	1000021e 	bne	r2,zero,8024c8 <tick+0x2188>
  8024c0:	00800044 	movi	r2,1
  8024c4:	00000106 	br	8024cc <tick+0x218c>
  8024c8:	0005883a 	mov	r2,zero
  8024cc:	d0a75f05 	stb	r2,-25220(gp)
		_cg145 = PVARP_stop;
  8024d0:	d0a78903 	ldbu	r2,-25052(gp)
  8024d4:	d0a77c45 	stb	r2,-25103(gp)
		g142 = (PRE_g141);
  8024d8:	d0a76443 	ldbu	r2,-25199(gp)
  8024dc:	d0a79a45 	stb	r2,-24983(gp)
		g142b = g142;
  8024e0:	d0a79a43 	ldbu	r2,-24983(gp)
  8024e4:	d0a75445 	stb	r2,-25263(gp)
		_cg142 = PVARP_start;
  8024e8:	d0a788c3 	ldbu	r2,-25053(gp)
  8024ec:	d0a76945 	stb	r2,-25179(gp)
		g141 = ((g144 && _cg144) || g140 || (g145 && _cg145)
  8024f0:	d0a77b43 	ldbu	r2,-25107(gp)
				|| (g142b && (!(_cg142))));
  8024f4:	10803fcc 	andi	r2,r2,255
  8024f8:	1080201c 	xori	r2,r2,128
  8024fc:	10bfe004 	addi	r2,r2,-128
  802500:	10000526 	beq	r2,zero,802518 <tick+0x21d8>
		g145 = (g144 && (!(_cg144)));
		_cg145 = PVARP_stop;
		g142 = (PRE_g141);
		g142b = g142;
		_cg142 = PVARP_start;
		g141 = ((g144 && _cg144) || g140 || (g145 && _cg145)
  802504:	d0a76003 	ldbu	r2,-25216(gp)
  802508:	10803fcc 	andi	r2,r2,255
  80250c:	1080201c 	xori	r2,r2,128
  802510:	10bfe004 	addi	r2,r2,-128
  802514:	1000191e 	bne	r2,zero,80257c <tick+0x223c>
  802518:	d0a75f83 	ldbu	r2,-25218(gp)
  80251c:	10803fcc 	andi	r2,r2,255
  802520:	1080201c 	xori	r2,r2,128
  802524:	10bfe004 	addi	r2,r2,-128
  802528:	1000141e 	bne	r2,zero,80257c <tick+0x223c>
  80252c:	d0a75f03 	ldbu	r2,-25220(gp)
  802530:	10803fcc 	andi	r2,r2,255
  802534:	1080201c 	xori	r2,r2,128
  802538:	10bfe004 	addi	r2,r2,-128
  80253c:	10000526 	beq	r2,zero,802554 <tick+0x2214>
  802540:	d0a77c43 	ldbu	r2,-25103(gp)
  802544:	10803fcc 	andi	r2,r2,255
  802548:	1080201c 	xori	r2,r2,128
  80254c:	10bfe004 	addi	r2,r2,-128
  802550:	10000a1e 	bne	r2,zero,80257c <tick+0x223c>
				|| (g142b && (!(_cg142))));
  802554:	d0a75443 	ldbu	r2,-25263(gp)
  802558:	10803fcc 	andi	r2,r2,255
  80255c:	1080201c 	xori	r2,r2,128
  802560:	10bfe004 	addi	r2,r2,-128
  802564:	10000726 	beq	r2,zero,802584 <tick+0x2244>
  802568:	d0a76943 	ldbu	r2,-25179(gp)
  80256c:	10803fcc 	andi	r2,r2,255
  802570:	1080201c 	xori	r2,r2,128
  802574:	10bfe004 	addi	r2,r2,-128
  802578:	1000021e 	bne	r2,zero,802584 <tick+0x2244>
  80257c:	00800044 	movi	r2,1
  802580:	00000106 	br	802588 <tick+0x2248>
  802584:	0005883a 	mov	r2,zero
		g145 = (g144 && (!(_cg144)));
		_cg145 = PVARP_stop;
		g142 = (PRE_g141);
		g142b = g142;
		_cg142 = PVARP_start;
		g141 = ((g144 && _cg144) || g140 || (g145 && _cg145)
  802588:	d0a79185 	stb	r2,-25018(gp)
				|| (g142b && (!(_cg142))));
		g143 = ((g142b && _cg142) || (g145 && (!(_cg145))));
  80258c:	d0a75443 	ldbu	r2,-25263(gp)
  802590:	10803fcc 	andi	r2,r2,255
  802594:	1080201c 	xori	r2,r2,128
  802598:	10bfe004 	addi	r2,r2,-128
  80259c:	10000526 	beq	r2,zero,8025b4 <tick+0x2274>
  8025a0:	d0a76943 	ldbu	r2,-25179(gp)
  8025a4:	10803fcc 	andi	r2,r2,255
  8025a8:	1080201c 	xori	r2,r2,128
  8025ac:	10bfe004 	addi	r2,r2,-128
  8025b0:	10000a1e 	bne	r2,zero,8025dc <tick+0x229c>
  8025b4:	d0a75f03 	ldbu	r2,-25220(gp)
  8025b8:	10803fcc 	andi	r2,r2,255
  8025bc:	1080201c 	xori	r2,r2,128
  8025c0:	10bfe004 	addi	r2,r2,-128
  8025c4:	10000726 	beq	r2,zero,8025e4 <tick+0x22a4>
  8025c8:	d0a77c43 	ldbu	r2,-25103(gp)
  8025cc:	10803fcc 	andi	r2,r2,255
  8025d0:	1080201c 	xori	r2,r2,128
  8025d4:	10bfe004 	addi	r2,r2,-128
  8025d8:	1000021e 	bne	r2,zero,8025e4 <tick+0x22a4>
  8025dc:	00800044 	movi	r2,1
  8025e0:	00000106 	br	8025e8 <tick+0x22a8>
  8025e4:	0005883a 	mov	r2,zero
  8025e8:	d0a77845 	stb	r2,-25119(gp)
		g19_e1 = (!((g4 || g7 || g9 || g12)));
  8025ec:	d0a755c3 	ldbu	r2,-25257(gp)
  8025f0:	10803fcc 	andi	r2,r2,255
  8025f4:	1080201c 	xori	r2,r2,128
  8025f8:	10bfe004 	addi	r2,r2,-128
  8025fc:	1000111e 	bne	r2,zero,802644 <tick+0x2304>
  802600:	d0a77603 	ldbu	r2,-25128(gp)
  802604:	10803fcc 	andi	r2,r2,255
  802608:	1080201c 	xori	r2,r2,128
  80260c:	10bfe004 	addi	r2,r2,-128
  802610:	10000c1e 	bne	r2,zero,802644 <tick+0x2304>
  802614:	d0a75ac3 	ldbu	r2,-25237(gp)
  802618:	10803fcc 	andi	r2,r2,255
  80261c:	1080201c 	xori	r2,r2,128
  802620:	10bfe004 	addi	r2,r2,-128
  802624:	1000071e 	bne	r2,zero,802644 <tick+0x2304>
  802628:	d0a76603 	ldbu	r2,-25192(gp)
  80262c:	10803fcc 	andi	r2,r2,255
  802630:	1080201c 	xori	r2,r2,128
  802634:	10bfe004 	addi	r2,r2,-128
  802638:	1000021e 	bne	r2,zero,802644 <tick+0x2304>
  80263c:	00800044 	movi	r2,1
  802640:	00000106 	br	802648 <tick+0x2308>
  802644:	0005883a 	mov	r2,zero
  802648:	d0a79b45 	stb	r2,-24979(gp)
		g44_e2 = (!((g22 || g25 || g29 || g34 || g36)));
  80264c:	d0a79b03 	ldbu	r2,-24980(gp)
  802650:	10803fcc 	andi	r2,r2,255
  802654:	1080201c 	xori	r2,r2,128
  802658:	10bfe004 	addi	r2,r2,-128
  80265c:	1000161e 	bne	r2,zero,8026b8 <tick+0x2378>
  802660:	d0a79983 	ldbu	r2,-24986(gp)
  802664:	10803fcc 	andi	r2,r2,255
  802668:	1080201c 	xori	r2,r2,128
  80266c:	10bfe004 	addi	r2,r2,-128
  802670:	1000111e 	bne	r2,zero,8026b8 <tick+0x2378>
  802674:	d0a7a0c3 	ldbu	r2,-24957(gp)
  802678:	10803fcc 	andi	r2,r2,255
  80267c:	1080201c 	xori	r2,r2,128
  802680:	10bfe004 	addi	r2,r2,-128
  802684:	10000c1e 	bne	r2,zero,8026b8 <tick+0x2378>
  802688:	d0a77443 	ldbu	r2,-25135(gp)
  80268c:	10803fcc 	andi	r2,r2,255
  802690:	1080201c 	xori	r2,r2,128
  802694:	10bfe004 	addi	r2,r2,-128
  802698:	1000071e 	bne	r2,zero,8026b8 <tick+0x2378>
  80269c:	d0a78783 	ldbu	r2,-25058(gp)
  8026a0:	10803fcc 	andi	r2,r2,255
  8026a4:	1080201c 	xori	r2,r2,128
  8026a8:	10bfe004 	addi	r2,r2,-128
  8026ac:	1000021e 	bne	r2,zero,8026b8 <tick+0x2378>
  8026b0:	00800044 	movi	r2,1
  8026b4:	00000106 	br	8026bc <tick+0x237c>
  8026b8:	0005883a 	mov	r2,zero
  8026bc:	d0a776c5 	stb	r2,-25125(gp)
		g51_e3 = (!((g47 || g49)));
  8026c0:	d0a75983 	ldbu	r2,-25242(gp)
  8026c4:	10803fcc 	andi	r2,r2,255
  8026c8:	1080201c 	xori	r2,r2,128
  8026cc:	10bfe004 	addi	r2,r2,-128
  8026d0:	1000071e 	bne	r2,zero,8026f0 <tick+0x23b0>
  8026d4:	d0a77583 	ldbu	r2,-25130(gp)
  8026d8:	10803fcc 	andi	r2,r2,255
  8026dc:	1080201c 	xori	r2,r2,128
  8026e0:	10bfe004 	addi	r2,r2,-128
  8026e4:	1000021e 	bne	r2,zero,8026f0 <tick+0x23b0>
  8026e8:	00800044 	movi	r2,1
  8026ec:	00000106 	br	8026f4 <tick+0x23b4>
  8026f0:	0005883a 	mov	r2,zero
  8026f4:	d0a76405 	stb	r2,-25200(gp)
		g58_e4 = (!((g54 || g56)));
  8026f8:	d0a77943 	ldbu	r2,-25115(gp)
  8026fc:	10803fcc 	andi	r2,r2,255
  802700:	1080201c 	xori	r2,r2,128
  802704:	10bfe004 	addi	r2,r2,-128
  802708:	1000071e 	bne	r2,zero,802728 <tick+0x23e8>
  80270c:	d0a77d03 	ldbu	r2,-25100(gp)
  802710:	10803fcc 	andi	r2,r2,255
  802714:	1080201c 	xori	r2,r2,128
  802718:	10bfe004 	addi	r2,r2,-128
  80271c:	1000021e 	bne	r2,zero,802728 <tick+0x23e8>
  802720:	00800044 	movi	r2,1
  802724:	00000106 	br	80272c <tick+0x23ec>
  802728:	0005883a 	mov	r2,zero
  80272c:	d0a787c5 	stb	r2,-25057(gp)
		g67_e5 = (!((g61 || g64)));
  802730:	d0a76343 	ldbu	r2,-25203(gp)
  802734:	10803fcc 	andi	r2,r2,255
  802738:	1080201c 	xori	r2,r2,128
  80273c:	10bfe004 	addi	r2,r2,-128
  802740:	1000071e 	bne	r2,zero,802760 <tick+0x2420>
  802744:	d0a772c3 	ldbu	r2,-25141(gp)
  802748:	10803fcc 	andi	r2,r2,255
  80274c:	1080201c 	xori	r2,r2,128
  802750:	10bfe004 	addi	r2,r2,-128
  802754:	1000021e 	bne	r2,zero,802760 <tick+0x2420>
  802758:	00800044 	movi	r2,1
  80275c:	00000106 	br	802764 <tick+0x2424>
  802760:	0005883a 	mov	r2,zero
  802764:	d0a77185 	stb	r2,-25146(gp)
		g74_e6 = (!((g70 || g72)));
  802768:	d0a78f83 	ldbu	r2,-25026(gp)
  80276c:	10803fcc 	andi	r2,r2,255
  802770:	1080201c 	xori	r2,r2,128
  802774:	10bfe004 	addi	r2,r2,-128
  802778:	1000071e 	bne	r2,zero,802798 <tick+0x2458>
  80277c:	d0a79303 	ldbu	r2,-25012(gp)
  802780:	10803fcc 	andi	r2,r2,255
  802784:	1080201c 	xori	r2,r2,128
  802788:	10bfe004 	addi	r2,r2,-128
  80278c:	1000021e 	bne	r2,zero,802798 <tick+0x2458>
  802790:	00800044 	movi	r2,1
  802794:	00000106 	br	80279c <tick+0x245c>
  802798:	0005883a 	mov	r2,zero
  80279c:	d0a76ec5 	stb	r2,-25157(gp)
		g102_e7 = (!((g77 || g80 || g86 || g94)));
  8027a0:	d0a79c83 	ldbu	r2,-24974(gp)
  8027a4:	10803fcc 	andi	r2,r2,255
  8027a8:	1080201c 	xori	r2,r2,128
  8027ac:	10bfe004 	addi	r2,r2,-128
  8027b0:	1000111e 	bne	r2,zero,8027f8 <tick+0x24b8>
  8027b4:	d0a77743 	ldbu	r2,-25123(gp)
  8027b8:	10803fcc 	andi	r2,r2,255
  8027bc:	1080201c 	xori	r2,r2,128
  8027c0:	10bfe004 	addi	r2,r2,-128
  8027c4:	10000c1e 	bne	r2,zero,8027f8 <tick+0x24b8>
  8027c8:	d0a78683 	ldbu	r2,-25062(gp)
  8027cc:	10803fcc 	andi	r2,r2,255
  8027d0:	1080201c 	xori	r2,r2,128
  8027d4:	10bfe004 	addi	r2,r2,-128
  8027d8:	1000071e 	bne	r2,zero,8027f8 <tick+0x24b8>
  8027dc:	d0a774c3 	ldbu	r2,-25133(gp)
  8027e0:	10803fcc 	andi	r2,r2,255
  8027e4:	1080201c 	xori	r2,r2,128
  8027e8:	10bfe004 	addi	r2,r2,-128
  8027ec:	1000021e 	bne	r2,zero,8027f8 <tick+0x24b8>
  8027f0:	00800044 	movi	r2,1
  8027f4:	00000106 	br	8027fc <tick+0x24bc>
  8027f8:	0005883a 	mov	r2,zero
  8027fc:	d0a75a45 	stb	r2,-25239(gp)
		g109_e8 = (!((g105 || g107)));
  802800:	d0a76f83 	ldbu	r2,-25154(gp)
  802804:	10803fcc 	andi	r2,r2,255
  802808:	1080201c 	xori	r2,r2,128
  80280c:	10bfe004 	addi	r2,r2,-128
  802810:	1000071e 	bne	r2,zero,802830 <tick+0x24f0>
  802814:	d0a78b83 	ldbu	r2,-25042(gp)
  802818:	10803fcc 	andi	r2,r2,255
  80281c:	1080201c 	xori	r2,r2,128
  802820:	10bfe004 	addi	r2,r2,-128
  802824:	1000021e 	bne	r2,zero,802830 <tick+0x24f0>
  802828:	00800044 	movi	r2,1
  80282c:	00000106 	br	802834 <tick+0x24f4>
  802830:	0005883a 	mov	r2,zero
  802834:	d0a77c05 	stb	r2,-25104(gp)
		g123_e9 = (!((g112 || g115 || g117)));
  802838:	d0a75803 	ldbu	r2,-25248(gp)
  80283c:	10803fcc 	andi	r2,r2,255
  802840:	1080201c 	xori	r2,r2,128
  802844:	10bfe004 	addi	r2,r2,-128
  802848:	10000c1e 	bne	r2,zero,80287c <tick+0x253c>
  80284c:	d0a76043 	ldbu	r2,-25215(gp)
  802850:	10803fcc 	andi	r2,r2,255
  802854:	1080201c 	xori	r2,r2,128
  802858:	10bfe004 	addi	r2,r2,-128
  80285c:	1000071e 	bne	r2,zero,80287c <tick+0x253c>
  802860:	d0a771c3 	ldbu	r2,-25145(gp)
  802864:	10803fcc 	andi	r2,r2,255
  802868:	1080201c 	xori	r2,r2,128
  80286c:	10bfe004 	addi	r2,r2,-128
  802870:	1000021e 	bne	r2,zero,80287c <tick+0x253c>
  802874:	00800044 	movi	r2,1
  802878:	00000106 	br	802880 <tick+0x2540>
  80287c:	0005883a 	mov	r2,zero
  802880:	d0a77705 	stb	r2,-25124(gp)
		g130_e10 = (!((g126 || g128)));
  802884:	d0a764c3 	ldbu	r2,-25197(gp)
  802888:	10803fcc 	andi	r2,r2,255
  80288c:	1080201c 	xori	r2,r2,128
  802890:	10bfe004 	addi	r2,r2,-128
  802894:	1000071e 	bne	r2,zero,8028b4 <tick+0x2574>
  802898:	d0a77783 	ldbu	r2,-25122(gp)
  80289c:	10803fcc 	andi	r2,r2,255
  8028a0:	1080201c 	xori	r2,r2,128
  8028a4:	10bfe004 	addi	r2,r2,-128
  8028a8:	1000021e 	bne	r2,zero,8028b4 <tick+0x2574>
  8028ac:	00800044 	movi	r2,1
  8028b0:	00000106 	br	8028b8 <tick+0x2578>
  8028b4:	0005883a 	mov	r2,zero
  8028b8:	d0a780c5 	stb	r2,-25085(gp)
		g139_e11 = (!((g133 || g136)));
  8028bc:	d0a7a1c3 	ldbu	r2,-24953(gp)
  8028c0:	10803fcc 	andi	r2,r2,255
  8028c4:	1080201c 	xori	r2,r2,128
  8028c8:	10bfe004 	addi	r2,r2,-128
  8028cc:	1000071e 	bne	r2,zero,8028ec <tick+0x25ac>
  8028d0:	d0a777c3 	ldbu	r2,-25121(gp)
  8028d4:	10803fcc 	andi	r2,r2,255
  8028d8:	1080201c 	xori	r2,r2,128
  8028dc:	10bfe004 	addi	r2,r2,-128
  8028e0:	1000021e 	bne	r2,zero,8028ec <tick+0x25ac>
  8028e4:	00800044 	movi	r2,1
  8028e8:	00000106 	br	8028f0 <tick+0x25b0>
  8028ec:	0005883a 	mov	r2,zero
  8028f0:	d0a799c5 	stb	r2,-24985(gp)
		g146_e12 = (!((g142 || g144)));
  8028f4:	d0a79a43 	ldbu	r2,-24983(gp)
  8028f8:	10803fcc 	andi	r2,r2,255
  8028fc:	1080201c 	xori	r2,r2,128
  802900:	10bfe004 	addi	r2,r2,-128
  802904:	1000071e 	bne	r2,zero,802924 <tick+0x25e4>
  802908:	d0a77b43 	ldbu	r2,-25107(gp)
  80290c:	10803fcc 	andi	r2,r2,255
  802910:	1080201c 	xori	r2,r2,128
  802914:	10bfe004 	addi	r2,r2,-128
  802918:	1000021e 	bne	r2,zero,802924 <tick+0x25e4>
  80291c:	00800044 	movi	r2,1
  802920:	00000106 	br	802928 <tick+0x25e8>
  802924:	0005883a 	mov	r2,zero
  802928:	d0a77245 	stb	r2,-25143(gp)
		g147_fix0 = ((g19_e1 || g19) && (g44_e2 || g44) && (g51_e3 || g51)
  80292c:	d0a79b43 	ldbu	r2,-24979(gp)
				&& (g58_e4 || g58));
  802930:	10803fcc 	andi	r2,r2,255
  802934:	1080201c 	xori	r2,r2,128
  802938:	10bfe004 	addi	r2,r2,-128
  80293c:	1000051e 	bne	r2,zero,802954 <tick+0x2614>
		g109_e8 = (!((g105 || g107)));
		g123_e9 = (!((g112 || g115 || g117)));
		g130_e10 = (!((g126 || g128)));
		g139_e11 = (!((g133 || g136)));
		g146_e12 = (!((g142 || g144)));
		g147_fix0 = ((g19_e1 || g19) && (g44_e2 || g44) && (g51_e3 || g51)
  802940:	d0a75643 	ldbu	r2,-25255(gp)
  802944:	10803fcc 	andi	r2,r2,255
  802948:	1080201c 	xori	r2,r2,128
  80294c:	10bfe004 	addi	r2,r2,-128
  802950:	10002026 	beq	r2,zero,8029d4 <tick+0x2694>
  802954:	d0a776c3 	ldbu	r2,-25125(gp)
  802958:	10803fcc 	andi	r2,r2,255
  80295c:	1080201c 	xori	r2,r2,128
  802960:	10bfe004 	addi	r2,r2,-128
  802964:	1000051e 	bne	r2,zero,80297c <tick+0x263c>
  802968:	d0a76183 	ldbu	r2,-25210(gp)
  80296c:	10803fcc 	andi	r2,r2,255
  802970:	1080201c 	xori	r2,r2,128
  802974:	10bfe004 	addi	r2,r2,-128
  802978:	10001626 	beq	r2,zero,8029d4 <tick+0x2694>
  80297c:	d0a76403 	ldbu	r2,-25200(gp)
  802980:	10803fcc 	andi	r2,r2,255
  802984:	1080201c 	xori	r2,r2,128
  802988:	10bfe004 	addi	r2,r2,-128
  80298c:	1000051e 	bne	r2,zero,8029a4 <tick+0x2664>
  802990:	d0a78a03 	ldbu	r2,-25048(gp)
  802994:	10803fcc 	andi	r2,r2,255
  802998:	1080201c 	xori	r2,r2,128
  80299c:	10bfe004 	addi	r2,r2,-128
  8029a0:	10000c26 	beq	r2,zero,8029d4 <tick+0x2694>
				&& (g58_e4 || g58));
  8029a4:	d0a787c3 	ldbu	r2,-25057(gp)
  8029a8:	10803fcc 	andi	r2,r2,255
  8029ac:	1080201c 	xori	r2,r2,128
  8029b0:	10bfe004 	addi	r2,r2,-128
  8029b4:	1000051e 	bne	r2,zero,8029cc <tick+0x268c>
  8029b8:	d0a79843 	ldbu	r2,-24991(gp)
  8029bc:	10803fcc 	andi	r2,r2,255
  8029c0:	1080201c 	xori	r2,r2,128
  8029c4:	10bfe004 	addi	r2,r2,-128
  8029c8:	10000226 	beq	r2,zero,8029d4 <tick+0x2694>
  8029cc:	00800044 	movi	r2,1
  8029d0:	00000106 	br	8029d8 <tick+0x2698>
  8029d4:	0005883a 	mov	r2,zero
		g109_e8 = (!((g105 || g107)));
		g123_e9 = (!((g112 || g115 || g117)));
		g130_e10 = (!((g126 || g128)));
		g139_e11 = (!((g133 || g136)));
		g146_e12 = (!((g142 || g144)));
		g147_fix0 = ((g19_e1 || g19) && (g44_e2 || g44) && (g51_e3 || g51)
  8029d8:	d0a78ec5 	stb	r2,-25029(gp)
				&& (g58_e4 || g58));
		g147_fix1 = (g147_fix0 && (g67_e5 || g67) && (g74_e6 || g74)
  8029dc:	d0a78ec3 	ldbu	r2,-25029(gp)
				&& (g102_e7 || g102));
  8029e0:	10803fcc 	andi	r2,r2,255
  8029e4:	1080201c 	xori	r2,r2,128
  8029e8:	10bfe004 	addi	r2,r2,-128
  8029ec:	10002026 	beq	r2,zero,802a70 <tick+0x2730>
		g130_e10 = (!((g126 || g128)));
		g139_e11 = (!((g133 || g136)));
		g146_e12 = (!((g142 || g144)));
		g147_fix0 = ((g19_e1 || g19) && (g44_e2 || g44) && (g51_e3 || g51)
				&& (g58_e4 || g58));
		g147_fix1 = (g147_fix0 && (g67_e5 || g67) && (g74_e6 || g74)
  8029f0:	d0a77183 	ldbu	r2,-25146(gp)
  8029f4:	10803fcc 	andi	r2,r2,255
  8029f8:	1080201c 	xori	r2,r2,128
  8029fc:	10bfe004 	addi	r2,r2,-128
  802a00:	1000051e 	bne	r2,zero,802a18 <tick+0x26d8>
  802a04:	d0a7a143 	ldbu	r2,-24955(gp)
  802a08:	10803fcc 	andi	r2,r2,255
  802a0c:	1080201c 	xori	r2,r2,128
  802a10:	10bfe004 	addi	r2,r2,-128
  802a14:	10001626 	beq	r2,zero,802a70 <tick+0x2730>
  802a18:	d0a76ec3 	ldbu	r2,-25157(gp)
  802a1c:	10803fcc 	andi	r2,r2,255
  802a20:	1080201c 	xori	r2,r2,128
  802a24:	10bfe004 	addi	r2,r2,-128
  802a28:	1000051e 	bne	r2,zero,802a40 <tick+0x2700>
  802a2c:	d0a7a643 	ldbu	r2,-24935(gp)
  802a30:	10803fcc 	andi	r2,r2,255
  802a34:	1080201c 	xori	r2,r2,128
  802a38:	10bfe004 	addi	r2,r2,-128
  802a3c:	10000c26 	beq	r2,zero,802a70 <tick+0x2730>
				&& (g102_e7 || g102));
  802a40:	d0a75a43 	ldbu	r2,-25239(gp)
  802a44:	10803fcc 	andi	r2,r2,255
  802a48:	1080201c 	xori	r2,r2,128
  802a4c:	10bfe004 	addi	r2,r2,-128
  802a50:	1000051e 	bne	r2,zero,802a68 <tick+0x2728>
  802a54:	d0a75f43 	ldbu	r2,-25219(gp)
  802a58:	10803fcc 	andi	r2,r2,255
  802a5c:	1080201c 	xori	r2,r2,128
  802a60:	10bfe004 	addi	r2,r2,-128
  802a64:	10000226 	beq	r2,zero,802a70 <tick+0x2730>
  802a68:	00800044 	movi	r2,1
  802a6c:	00000106 	br	802a74 <tick+0x2734>
  802a70:	0005883a 	mov	r2,zero
		g130_e10 = (!((g126 || g128)));
		g139_e11 = (!((g133 || g136)));
		g146_e12 = (!((g142 || g144)));
		g147_fix0 = ((g19_e1 || g19) && (g44_e2 || g44) && (g51_e3 || g51)
				&& (g58_e4 || g58));
		g147_fix1 = (g147_fix0 && (g67_e5 || g67) && (g74_e6 || g74)
  802a74:	d0a79245 	stb	r2,-25015(gp)
				&& (g102_e7 || g102));
		g147_fix2 = (g19 || g44 || g51 || g58);
  802a78:	d0a75643 	ldbu	r2,-25255(gp)
  802a7c:	10803fcc 	andi	r2,r2,255
  802a80:	1080201c 	xori	r2,r2,128
  802a84:	10bfe004 	addi	r2,r2,-128
  802a88:	10000f1e 	bne	r2,zero,802ac8 <tick+0x2788>
  802a8c:	d0a76183 	ldbu	r2,-25210(gp)
  802a90:	10803fcc 	andi	r2,r2,255
  802a94:	1080201c 	xori	r2,r2,128
  802a98:	10bfe004 	addi	r2,r2,-128
  802a9c:	10000a1e 	bne	r2,zero,802ac8 <tick+0x2788>
  802aa0:	d0a78a03 	ldbu	r2,-25048(gp)
  802aa4:	10803fcc 	andi	r2,r2,255
  802aa8:	1080201c 	xori	r2,r2,128
  802aac:	10bfe004 	addi	r2,r2,-128
  802ab0:	1000051e 	bne	r2,zero,802ac8 <tick+0x2788>
  802ab4:	d0a79843 	ldbu	r2,-24991(gp)
  802ab8:	10803fcc 	andi	r2,r2,255
  802abc:	1080201c 	xori	r2,r2,128
  802ac0:	10bfe004 	addi	r2,r2,-128
  802ac4:	10000226 	beq	r2,zero,802ad0 <tick+0x2790>
  802ac8:	00800044 	movi	r2,1
  802acc:	00000106 	br	802ad4 <tick+0x2794>
  802ad0:	0005883a 	mov	r2,zero
  802ad4:	d0a78605 	stb	r2,-25064(gp)
		g147_fix3 = (g147_fix2 || g67 || g74 || g102);
  802ad8:	d0a78603 	ldbu	r2,-25064(gp)
  802adc:	10803fcc 	andi	r2,r2,255
  802ae0:	1080201c 	xori	r2,r2,128
  802ae4:	10bfe004 	addi	r2,r2,-128
  802ae8:	10000f1e 	bne	r2,zero,802b28 <tick+0x27e8>
  802aec:	d0a7a143 	ldbu	r2,-24955(gp)
  802af0:	10803fcc 	andi	r2,r2,255
  802af4:	1080201c 	xori	r2,r2,128
  802af8:	10bfe004 	addi	r2,r2,-128
  802afc:	10000a1e 	bne	r2,zero,802b28 <tick+0x27e8>
  802b00:	d0a7a643 	ldbu	r2,-24935(gp)
  802b04:	10803fcc 	andi	r2,r2,255
  802b08:	1080201c 	xori	r2,r2,128
  802b0c:	10bfe004 	addi	r2,r2,-128
  802b10:	1000051e 	bne	r2,zero,802b28 <tick+0x27e8>
  802b14:	d0a75f43 	ldbu	r2,-25219(gp)
  802b18:	10803fcc 	andi	r2,r2,255
  802b1c:	1080201c 	xori	r2,r2,128
  802b20:	10bfe004 	addi	r2,r2,-128
  802b24:	10000226 	beq	r2,zero,802b30 <tick+0x27f0>
  802b28:	00800044 	movi	r2,1
  802b2c:	00000106 	br	802b34 <tick+0x27f4>
  802b30:	0005883a 	mov	r2,zero
  802b34:	d0a77145 	stb	r2,-25147(gp)
		g147_e1_fix_fix = (g128 || g144 || g7 || g25 || g64 || g80 || g115
  802b38:	d0a77783 	ldbu	r2,-25122(gp)
				|| g136 || g9 || g117 || g29 || g86 || g12 || g94);
  802b3c:	10803fcc 	andi	r2,r2,255
  802b40:	1080201c 	xori	r2,r2,128
  802b44:	10bfe004 	addi	r2,r2,-128
  802b48:	1000411e 	bne	r2,zero,802c50 <tick+0x2910>
				&& (g58_e4 || g58));
		g147_fix1 = (g147_fix0 && (g67_e5 || g67) && (g74_e6 || g74)
				&& (g102_e7 || g102));
		g147_fix2 = (g19 || g44 || g51 || g58);
		g147_fix3 = (g147_fix2 || g67 || g74 || g102);
		g147_e1_fix_fix = (g128 || g144 || g7 || g25 || g64 || g80 || g115
  802b4c:	d0a77b43 	ldbu	r2,-25107(gp)
  802b50:	10803fcc 	andi	r2,r2,255
  802b54:	1080201c 	xori	r2,r2,128
  802b58:	10bfe004 	addi	r2,r2,-128
  802b5c:	10003c1e 	bne	r2,zero,802c50 <tick+0x2910>
  802b60:	d0a77603 	ldbu	r2,-25128(gp)
  802b64:	10803fcc 	andi	r2,r2,255
  802b68:	1080201c 	xori	r2,r2,128
  802b6c:	10bfe004 	addi	r2,r2,-128
  802b70:	1000371e 	bne	r2,zero,802c50 <tick+0x2910>
  802b74:	d0a79983 	ldbu	r2,-24986(gp)
  802b78:	10803fcc 	andi	r2,r2,255
  802b7c:	1080201c 	xori	r2,r2,128
  802b80:	10bfe004 	addi	r2,r2,-128
  802b84:	1000321e 	bne	r2,zero,802c50 <tick+0x2910>
  802b88:	d0a772c3 	ldbu	r2,-25141(gp)
  802b8c:	10803fcc 	andi	r2,r2,255
  802b90:	1080201c 	xori	r2,r2,128
  802b94:	10bfe004 	addi	r2,r2,-128
  802b98:	10002d1e 	bne	r2,zero,802c50 <tick+0x2910>
  802b9c:	d0a77743 	ldbu	r2,-25123(gp)
  802ba0:	10803fcc 	andi	r2,r2,255
  802ba4:	1080201c 	xori	r2,r2,128
  802ba8:	10bfe004 	addi	r2,r2,-128
  802bac:	1000281e 	bne	r2,zero,802c50 <tick+0x2910>
  802bb0:	d0a76043 	ldbu	r2,-25215(gp)
  802bb4:	10803fcc 	andi	r2,r2,255
  802bb8:	1080201c 	xori	r2,r2,128
  802bbc:	10bfe004 	addi	r2,r2,-128
  802bc0:	1000231e 	bne	r2,zero,802c50 <tick+0x2910>
				|| g136 || g9 || g117 || g29 || g86 || g12 || g94);
  802bc4:	d0a777c3 	ldbu	r2,-25121(gp)
  802bc8:	10803fcc 	andi	r2,r2,255
  802bcc:	1080201c 	xori	r2,r2,128
  802bd0:	10bfe004 	addi	r2,r2,-128
  802bd4:	10001e1e 	bne	r2,zero,802c50 <tick+0x2910>
  802bd8:	d0a75ac3 	ldbu	r2,-25237(gp)
  802bdc:	10803fcc 	andi	r2,r2,255
  802be0:	1080201c 	xori	r2,r2,128
  802be4:	10bfe004 	addi	r2,r2,-128
  802be8:	1000191e 	bne	r2,zero,802c50 <tick+0x2910>
  802bec:	d0a771c3 	ldbu	r2,-25145(gp)
  802bf0:	10803fcc 	andi	r2,r2,255
  802bf4:	1080201c 	xori	r2,r2,128
  802bf8:	10bfe004 	addi	r2,r2,-128
  802bfc:	1000141e 	bne	r2,zero,802c50 <tick+0x2910>
  802c00:	d0a7a0c3 	ldbu	r2,-24957(gp)
  802c04:	10803fcc 	andi	r2,r2,255
  802c08:	1080201c 	xori	r2,r2,128
  802c0c:	10bfe004 	addi	r2,r2,-128
  802c10:	10000f1e 	bne	r2,zero,802c50 <tick+0x2910>
  802c14:	d0a78683 	ldbu	r2,-25062(gp)
  802c18:	10803fcc 	andi	r2,r2,255
  802c1c:	1080201c 	xori	r2,r2,128
  802c20:	10bfe004 	addi	r2,r2,-128
  802c24:	10000a1e 	bne	r2,zero,802c50 <tick+0x2910>
  802c28:	d0a76603 	ldbu	r2,-25192(gp)
  802c2c:	10803fcc 	andi	r2,r2,255
  802c30:	1080201c 	xori	r2,r2,128
  802c34:	10bfe004 	addi	r2,r2,-128
  802c38:	1000051e 	bne	r2,zero,802c50 <tick+0x2910>
  802c3c:	d0a774c3 	ldbu	r2,-25133(gp)
  802c40:	10803fcc 	andi	r2,r2,255
  802c44:	1080201c 	xori	r2,r2,128
  802c48:	10bfe004 	addi	r2,r2,-128
  802c4c:	10000226 	beq	r2,zero,802c58 <tick+0x2918>
  802c50:	00800044 	movi	r2,1
  802c54:	00000106 	br	802c5c <tick+0x291c>
  802c58:	0005883a 	mov	r2,zero
				&& (g58_e4 || g58));
		g147_fix1 = (g147_fix0 && (g67_e5 || g67) && (g74_e6 || g74)
				&& (g102_e7 || g102));
		g147_fix2 = (g19 || g44 || g51 || g58);
		g147_fix3 = (g147_fix2 || g67 || g74 || g102);
		g147_e1_fix_fix = (g128 || g144 || g7 || g25 || g64 || g80 || g115
  802c5c:	d0a7a545 	stb	r2,-24939(gp)
				|| g136 || g9 || g117 || g29 || g86 || g12 || g94);
		g147_e1_fix = (g112 || g126 || g133 || g142 || g49 || g56 || g72 || g107
  802c60:	d0a75803 	ldbu	r2,-25248(gp)
				|| g34 || g147_e1_fix_fix);
  802c64:	10803fcc 	andi	r2,r2,255
  802c68:	1080201c 	xori	r2,r2,128
  802c6c:	10bfe004 	addi	r2,r2,-128
  802c70:	10002d1e 	bne	r2,zero,802d28 <tick+0x29e8>
				&& (g102_e7 || g102));
		g147_fix2 = (g19 || g44 || g51 || g58);
		g147_fix3 = (g147_fix2 || g67 || g74 || g102);
		g147_e1_fix_fix = (g128 || g144 || g7 || g25 || g64 || g80 || g115
				|| g136 || g9 || g117 || g29 || g86 || g12 || g94);
		g147_e1_fix = (g112 || g126 || g133 || g142 || g49 || g56 || g72 || g107
  802c74:	d0a764c3 	ldbu	r2,-25197(gp)
  802c78:	10803fcc 	andi	r2,r2,255
  802c7c:	1080201c 	xori	r2,r2,128
  802c80:	10bfe004 	addi	r2,r2,-128
  802c84:	1000281e 	bne	r2,zero,802d28 <tick+0x29e8>
  802c88:	d0a7a1c3 	ldbu	r2,-24953(gp)
  802c8c:	10803fcc 	andi	r2,r2,255
  802c90:	1080201c 	xori	r2,r2,128
  802c94:	10bfe004 	addi	r2,r2,-128
  802c98:	1000231e 	bne	r2,zero,802d28 <tick+0x29e8>
  802c9c:	d0a79a43 	ldbu	r2,-24983(gp)
  802ca0:	10803fcc 	andi	r2,r2,255
  802ca4:	1080201c 	xori	r2,r2,128
  802ca8:	10bfe004 	addi	r2,r2,-128
  802cac:	10001e1e 	bne	r2,zero,802d28 <tick+0x29e8>
  802cb0:	d0a77583 	ldbu	r2,-25130(gp)
  802cb4:	10803fcc 	andi	r2,r2,255
  802cb8:	1080201c 	xori	r2,r2,128
  802cbc:	10bfe004 	addi	r2,r2,-128
  802cc0:	1000191e 	bne	r2,zero,802d28 <tick+0x29e8>
  802cc4:	d0a77d03 	ldbu	r2,-25100(gp)
  802cc8:	10803fcc 	andi	r2,r2,255
  802ccc:	1080201c 	xori	r2,r2,128
  802cd0:	10bfe004 	addi	r2,r2,-128
  802cd4:	1000141e 	bne	r2,zero,802d28 <tick+0x29e8>
  802cd8:	d0a79303 	ldbu	r2,-25012(gp)
  802cdc:	10803fcc 	andi	r2,r2,255
  802ce0:	1080201c 	xori	r2,r2,128
  802ce4:	10bfe004 	addi	r2,r2,-128
  802ce8:	10000f1e 	bne	r2,zero,802d28 <tick+0x29e8>
  802cec:	d0a78b83 	ldbu	r2,-25042(gp)
  802cf0:	10803fcc 	andi	r2,r2,255
  802cf4:	1080201c 	xori	r2,r2,128
  802cf8:	10bfe004 	addi	r2,r2,-128
  802cfc:	10000a1e 	bne	r2,zero,802d28 <tick+0x29e8>
				|| g34 || g147_e1_fix_fix);
  802d00:	d0a77443 	ldbu	r2,-25135(gp)
  802d04:	10803fcc 	andi	r2,r2,255
  802d08:	1080201c 	xori	r2,r2,128
  802d0c:	10bfe004 	addi	r2,r2,-128
  802d10:	1000051e 	bne	r2,zero,802d28 <tick+0x29e8>
  802d14:	d0a7a543 	ldbu	r2,-24939(gp)
  802d18:	10803fcc 	andi	r2,r2,255
  802d1c:	1080201c 	xori	r2,r2,128
  802d20:	10bfe004 	addi	r2,r2,-128
  802d24:	10000226 	beq	r2,zero,802d30 <tick+0x29f0>
  802d28:	00800044 	movi	r2,1
  802d2c:	00000106 	br	802d34 <tick+0x29f4>
  802d30:	0005883a 	mov	r2,zero
				&& (g102_e7 || g102));
		g147_fix2 = (g19 || g44 || g51 || g58);
		g147_fix3 = (g147_fix2 || g67 || g74 || g102);
		g147_e1_fix_fix = (g128 || g144 || g7 || g25 || g64 || g80 || g115
				|| g136 || g9 || g117 || g29 || g86 || g12 || g94);
		g147_e1_fix = (g112 || g126 || g133 || g142 || g49 || g56 || g72 || g107
  802d34:	d0a78645 	stb	r2,-25063(gp)
				|| g34 || g147_e1_fix_fix);
		g147_e1 = (!((g4 || g22 || g47 || g54 || g61 || g70 || g77 || g105
  802d38:	d0a755c3 	ldbu	r2,-25257(gp)
  802d3c:	10803fcc 	andi	r2,r2,255
  802d40:	1080201c 	xori	r2,r2,128
  802d44:	10bfe004 	addi	r2,r2,-128
  802d48:	10002f1e 	bne	r2,zero,802e08 <tick+0x2ac8>
  802d4c:	d0a79b03 	ldbu	r2,-24980(gp)
  802d50:	10803fcc 	andi	r2,r2,255
  802d54:	1080201c 	xori	r2,r2,128
  802d58:	10bfe004 	addi	r2,r2,-128
  802d5c:	10002a1e 	bne	r2,zero,802e08 <tick+0x2ac8>
  802d60:	d0a75983 	ldbu	r2,-25242(gp)
  802d64:	10803fcc 	andi	r2,r2,255
  802d68:	1080201c 	xori	r2,r2,128
  802d6c:	10bfe004 	addi	r2,r2,-128
  802d70:	1000251e 	bne	r2,zero,802e08 <tick+0x2ac8>
  802d74:	d0a77943 	ldbu	r2,-25115(gp)
  802d78:	10803fcc 	andi	r2,r2,255
  802d7c:	1080201c 	xori	r2,r2,128
  802d80:	10bfe004 	addi	r2,r2,-128
  802d84:	1000201e 	bne	r2,zero,802e08 <tick+0x2ac8>
  802d88:	d0a76343 	ldbu	r2,-25203(gp)
  802d8c:	10803fcc 	andi	r2,r2,255
  802d90:	1080201c 	xori	r2,r2,128
  802d94:	10bfe004 	addi	r2,r2,-128
  802d98:	10001b1e 	bne	r2,zero,802e08 <tick+0x2ac8>
  802d9c:	d0a78f83 	ldbu	r2,-25026(gp)
  802da0:	10803fcc 	andi	r2,r2,255
  802da4:	1080201c 	xori	r2,r2,128
  802da8:	10bfe004 	addi	r2,r2,-128
  802dac:	1000161e 	bne	r2,zero,802e08 <tick+0x2ac8>
  802db0:	d0a79c83 	ldbu	r2,-24974(gp)
  802db4:	10803fcc 	andi	r2,r2,255
  802db8:	1080201c 	xori	r2,r2,128
  802dbc:	10bfe004 	addi	r2,r2,-128
  802dc0:	1000111e 	bne	r2,zero,802e08 <tick+0x2ac8>
  802dc4:	d0a76f83 	ldbu	r2,-25154(gp)
  802dc8:	10803fcc 	andi	r2,r2,255
  802dcc:	1080201c 	xori	r2,r2,128
  802dd0:	10bfe004 	addi	r2,r2,-128
  802dd4:	10000c1e 	bne	r2,zero,802e08 <tick+0x2ac8>
				|| g36 || g147_e1_fix)));
  802dd8:	d0a78783 	ldbu	r2,-25058(gp)
  802ddc:	10803fcc 	andi	r2,r2,255
  802de0:	1080201c 	xori	r2,r2,128
  802de4:	10bfe004 	addi	r2,r2,-128
  802de8:	1000071e 	bne	r2,zero,802e08 <tick+0x2ac8>
  802dec:	d0a78643 	ldbu	r2,-25063(gp)
		g147_fix3 = (g147_fix2 || g67 || g74 || g102);
		g147_e1_fix_fix = (g128 || g144 || g7 || g25 || g64 || g80 || g115
				|| g136 || g9 || g117 || g29 || g86 || g12 || g94);
		g147_e1_fix = (g112 || g126 || g133 || g142 || g49 || g56 || g72 || g107
				|| g34 || g147_e1_fix_fix);
		g147_e1 = (!((g4 || g22 || g47 || g54 || g61 || g70 || g77 || g105
  802df0:	10803fcc 	andi	r2,r2,255
  802df4:	1080201c 	xori	r2,r2,128
  802df8:	10bfe004 	addi	r2,r2,-128
  802dfc:	1000021e 	bne	r2,zero,802e08 <tick+0x2ac8>
  802e00:	00800044 	movi	r2,1
  802e04:	00000106 	br	802e0c <tick+0x2acc>
  802e08:	0005883a 	mov	r2,zero
  802e0c:	d0a76785 	stb	r2,-25186(gp)
				|| g36 || g147_e1_fix)));
		g151_e2 = (!(g150));
  802e10:	d0a761c3 	ldbu	r2,-25209(gp)
  802e14:	10803fcc 	andi	r2,r2,255
  802e18:	1080201c 	xori	r2,r2,128
  802e1c:	10bfe004 	addi	r2,r2,-128
  802e20:	1005003a 	cmpeq	r2,r2,zero
  802e24:	d0a7a085 	stb	r2,-24958(gp)
	}
	PRE_g3 = g3;
  802e28:	d0a75843 	ldbu	r2,-25247(gp)
  802e2c:	d0a75d45 	stb	r2,-25227(gp)
	PRE_g6 = g6;
  802e30:	d0a79283 	ldbu	r2,-25014(gp)
  802e34:	d0a77e05 	stb	r2,-25096(gp)
	PRE_g8 = g8;
  802e38:	d0a78e83 	ldbu	r2,-25030(gp)
  802e3c:	d0a76a85 	stb	r2,-25174(gp)
	PRE_g11 = g11;
  802e40:	d0a79a83 	ldbu	r2,-24982(gp)
  802e44:	d0a78405 	stb	r2,-25072(gp)
	PRE_g21 = g21;
  802e48:	d0a77303 	ldbu	r2,-25140(gp)
  802e4c:	d0a79745 	stb	r2,-24995(gp)
	PRE_g24 = g24;
  802e50:	d0a7a183 	ldbu	r2,-24954(gp)
  802e54:	d0a76585 	stb	r2,-25194(gp)
	PRE_g28 = g28;
  802e58:	d0a79b83 	ldbu	r2,-24978(gp)
  802e5c:	d0a76485 	stb	r2,-25198(gp)
	PRE_g33 = g33;
  802e60:	d0a77e83 	ldbu	r2,-25094(gp)
  802e64:	d0a79405 	stb	r2,-25008(gp)
	PRE_g35 = g35;
  802e68:	d0a782c3 	ldbu	r2,-25077(gp)
  802e6c:	d0a76e45 	stb	r2,-25159(gp)
	PRE_g46 = g46;
  802e70:	d0a78843 	ldbu	r2,-25055(gp)
  802e74:	d0a77385 	stb	r2,-25138(gp)
	PRE_g48 = g48;
  802e78:	d0a76e03 	ldbu	r2,-25160(gp)
  802e7c:	d0a78c45 	stb	r2,-25039(gp)
	PRE_g53 = g53;
  802e80:	d0a78e43 	ldbu	r2,-25031(gp)
  802e84:	d0a76c45 	stb	r2,-25167(gp)
	PRE_g55 = g55;
  802e88:	d0a75743 	ldbu	r2,-25251(gp)
  802e8c:	d0a773c5 	stb	r2,-25137(gp)
	PRE_g60 = g60;
  802e90:	d0a784c3 	ldbu	r2,-25069(gp)
  802e94:	d0a78a85 	stb	r2,-25046(gp)
	PRE_g63 = g63;
  802e98:	d0a78443 	ldbu	r2,-25071(gp)
  802e9c:	d0a758c5 	stb	r2,-25245(gp)
	PRE_g69 = g69;
  802ea0:	d0a7a4c3 	ldbu	r2,-24941(gp)
  802ea4:	d0a76545 	stb	r2,-25195(gp)
	PRE_g71 = g71;
  802ea8:	d0a763c3 	ldbu	r2,-25201(gp)
  802eac:	d0a77a45 	stb	r2,-25111(gp)
	PRE_g76 = g76;
  802eb0:	d0a767c3 	ldbu	r2,-25185(gp)
  802eb4:	d0a793c5 	stb	r2,-25009(gp)
	PRE_g79 = g79;
  802eb8:	d0a77403 	ldbu	r2,-25136(gp)
  802ebc:	d0a77ac5 	stb	r2,-25109(gp)
	PRE_g85 = g85;
  802ec0:	d0a759c3 	ldbu	r2,-25241(gp)
  802ec4:	d0a76a45 	stb	r2,-25175(gp)
	PRE_g93 = g93;
  802ec8:	d0a78543 	ldbu	r2,-25067(gp)
  802ecc:	d0a79a05 	stb	r2,-24984(gp)
	PRE_g104 = g104;
  802ed0:	d0a78d83 	ldbu	r2,-25034(gp)
  802ed4:	d0a76c05 	stb	r2,-25168(gp)
	PRE_g106 = g106;
  802ed8:	d0a7a303 	ldbu	r2,-24948(gp)
  802edc:	d0a78205 	stb	r2,-25080(gp)
	PRE_g111 = g111;
  802ee0:	d0a756c3 	ldbu	r2,-25253(gp)
  802ee4:	d0a77285 	stb	r2,-25142(gp)
	PRE_g114 = g114;
  802ee8:	d0a77cc3 	ldbu	r2,-25101(gp)
  802eec:	d0a75a85 	stb	r2,-25238(gp)
	PRE_g116 = g116;
  802ef0:	d0a79203 	ldbu	r2,-25016(gp)
  802ef4:	d0a77105 	stb	r2,-25148(gp)
	PRE_g125 = g125;
  802ef8:	d0a79c43 	ldbu	r2,-24975(gp)
  802efc:	d0a78705 	stb	r2,-25060(gp)
	PRE_g127 = g127;
  802f00:	d0a75b03 	ldbu	r2,-25236(gp)
  802f04:	d0a79d85 	stb	r2,-24970(gp)
	PRE_g132 = g132;
  802f08:	d0a76c83 	ldbu	r2,-25166(gp)
  802f0c:	d0a7a405 	stb	r2,-24944(gp)
	PRE_g135 = g135;
  802f10:	d0a76383 	ldbu	r2,-25202(gp)
  802f14:	d0a7a3c5 	stb	r2,-24945(gp)
	PRE_g141 = g141;
  802f18:	d0a79183 	ldbu	r2,-25018(gp)
  802f1c:	d0a76445 	stb	r2,-25199(gp)
	PRE_g143 = g143;
  802f20:	d0a77843 	ldbu	r2,-25119(gp)
  802f24:	d0a77805 	stb	r2,-25120(gp)
	PRE_g149 = g149;
  802f28:	d0a7a2c3 	ldbu	r2,-24949(gp)
  802f2c:	d0a75d05 	stb	r2,-25228(gp)
	_PRE_GO = _GO;
  802f30:	d0a78383 	ldbu	r2,-25074(gp)
  802f34:	10803fcc 	andi	r2,r2,255
  802f38:	1080201c 	xori	r2,r2,128
  802f3c:	10bfe004 	addi	r2,r2,-128
  802f40:	d0a75c15 	stw	r2,-25232(gp)
	return;
  802f44:	0001883a 	nop
}
  802f48:	e037883a 	mov	sp,fp
  802f4c:	df000017 	ldw	fp,0(sp)
  802f50:	dec00104 	addi	sp,sp,4
  802f54:	f800283a 	ret

00802f58 <UART_receiver>:
int fd;

// UART Receive
// Reads buffer and sets signals
// Based on V or A char input
void UART_receiver() {
  802f58:	defffe04 	addi	sp,sp,-8
  802f5c:	dfc00115 	stw	ra,4(sp)
  802f60:	df000015 	stw	fp,0(sp)
  802f64:	d839883a 	mov	fp,sp
	read(fd, buffer, 1);
  802f68:	d0a76d17 	ldw	r2,-25164(gp)
  802f6c:	d0e77f17 	ldw	r3,-25092(gp)
  802f70:	01800044 	movi	r6,1
  802f74:	180b883a 	mov	r5,r3
  802f78:	1009883a 	mov	r4,r2
  802f7c:	08112fc0 	call	8112fc <read>
	if (*buffer == 'V') {
  802f80:	d0a77f17 	ldw	r2,-25092(gp)
  802f84:	10800003 	ldbu	r2,0(r2)
  802f88:	10803fcc 	andi	r2,r2,255
  802f8c:	1080201c 	xori	r2,r2,128
  802f90:	10bfe004 	addi	r2,r2,-128
  802f94:	10801598 	cmpnei	r2,r2,86
  802f98:	1000031e 	bne	r2,zero,802fa8 <UART_receiver+0x50>
		VSense_flag = 1;
  802f9c:	00800044 	movi	r2,1
  802fa0:	d0a74c15 	stw	r2,-25296(gp)
  802fa4:	00000906 	br	802fcc <UART_receiver+0x74>
	} else if (*buffer == 'A') {
  802fa8:	d0a77f17 	ldw	r2,-25092(gp)
  802fac:	10800003 	ldbu	r2,0(r2)
  802fb0:	10803fcc 	andi	r2,r2,255
  802fb4:	1080201c 	xori	r2,r2,128
  802fb8:	10bfe004 	addi	r2,r2,-128
  802fbc:	10801058 	cmpnei	r2,r2,65
  802fc0:	1000021e 	bne	r2,zero,802fcc <UART_receiver+0x74>
		ASense_flag = 1;
  802fc4:	00800044 	movi	r2,1
  802fc8:	d0a74d15 	stw	r2,-25292(gp)
	}
	*buffer = 0;
  802fcc:	d0a77f17 	ldw	r2,-25092(gp)
  802fd0:	10000005 	stb	zero,0(r2)
	return;
  802fd4:	0001883a 	nop
}
  802fd8:	e037883a 	mov	sp,fp
  802fdc:	dfc00117 	ldw	ra,4(sp)
  802fe0:	df000017 	ldw	fp,0(sp)
  802fe4:	dec00204 	addi	sp,sp,8
  802fe8:	f800283a 	ret

00802fec <UART_send>:

// UART Send
// Reads Signals and writes to buffer
void UART_send() {
  802fec:	defffe04 	addi	sp,sp,-8
  802ff0:	dfc00115 	stw	ra,4(sp)
  802ff4:	df000015 	stw	fp,0(sp)
  802ff8:	d839883a 	mov	fp,sp
	if (VPace == 1) {
  802ffc:	d0a79f03 	ldbu	r2,-24964(gp)
  803000:	10803fcc 	andi	r2,r2,255
  803004:	1080201c 	xori	r2,r2,128
  803008:	10bfe004 	addi	r2,r2,-128
  80300c:	10800058 	cmpnei	r2,r2,1
  803010:	10000a1e 	bne	r2,zero,80303c <UART_send+0x50>
		*buffer = 'V';
  803014:	d0a77f17 	ldw	r2,-25092(gp)
  803018:	00c01584 	movi	r3,86
  80301c:	10c00005 	stb	r3,0(r2)
		write(fd, buffer, 1);
  803020:	d0a76d17 	ldw	r2,-25164(gp)
  803024:	d0e77f17 	ldw	r3,-25092(gp)
  803028:	01800044 	movi	r6,1
  80302c:	180b883a 	mov	r5,r3
  803030:	1009883a 	mov	r4,r2
  803034:	08116ec0 	call	8116ec <write>
	} else if (APace == 1) {
		*buffer = 'A';
		write(fd, buffer, 1);
	}
	return;
  803038:	00001006 	br	80307c <UART_send+0x90>
// Reads Signals and writes to buffer
void UART_send() {
	if (VPace == 1) {
		*buffer = 'V';
		write(fd, buffer, 1);
	} else if (APace == 1) {
  80303c:	d0a75543 	ldbu	r2,-25259(gp)
  803040:	10803fcc 	andi	r2,r2,255
  803044:	1080201c 	xori	r2,r2,128
  803048:	10bfe004 	addi	r2,r2,-128
  80304c:	10800058 	cmpnei	r2,r2,1
  803050:	10000a1e 	bne	r2,zero,80307c <UART_send+0x90>
		*buffer = 'A';
  803054:	d0a77f17 	ldw	r2,-25092(gp)
  803058:	00c01044 	movi	r3,65
  80305c:	10c00005 	stb	r3,0(r2)
		write(fd, buffer, 1);
  803060:	d0a76d17 	ldw	r2,-25164(gp)
  803064:	d0e77f17 	ldw	r3,-25092(gp)
  803068:	01800044 	movi	r6,1
  80306c:	180b883a 	mov	r5,r3
  803070:	1009883a 	mov	r4,r2
  803074:	08116ec0 	call	8116ec <write>
	}
	return;
  803078:	0001883a 	nop
  80307c:	0001883a 	nop
}
  803080:	e037883a 	mov	sp,fp
  803084:	dfc00117 	ldw	ra,4(sp)
  803088:	df000017 	ldw	fp,0(sp)
  80308c:	dec00204 	addi	sp,sp,8
  803090:	f800283a 	ret

00803094 <AVI_timer_ISR>:

// Timer ISRS
// Timer_ex flags set here
// Written to SCCHarts Signals before tick
alt_u32 AVI_timer_ISR(void* context) {
  803094:	defffe04 	addi	sp,sp,-8
  803098:	df000115 	stw	fp,4(sp)
  80309c:	df000104 	addi	fp,sp,4
  8030a0:	e13fff15 	stw	r4,-4(fp)
	AVI_ex_flag = 1;
  8030a4:	00800044 	movi	r2,1
  8030a8:	d0a74e15 	stw	r2,-25288(gp)
	return 0;
  8030ac:	0005883a 	mov	r2,zero
}
  8030b0:	e037883a 	mov	sp,fp
  8030b4:	df000017 	ldw	fp,0(sp)
  8030b8:	dec00104 	addi	sp,sp,4
  8030bc:	f800283a 	ret

008030c0 <AEI_timer_ISR>:

alt_u32 AEI_timer_ISR(void* context) {
  8030c0:	defffe04 	addi	sp,sp,-8
  8030c4:	df000115 	stw	fp,4(sp)
  8030c8:	df000104 	addi	fp,sp,4
  8030cc:	e13fff15 	stw	r4,-4(fp)
	AEI_ex_flag = 1;
  8030d0:	00800044 	movi	r2,1
  8030d4:	d0a74f15 	stw	r2,-25284(gp)
	return 0;
  8030d8:	0005883a 	mov	r2,zero
}
  8030dc:	e037883a 	mov	sp,fp
  8030e0:	df000017 	ldw	fp,0(sp)
  8030e4:	dec00104 	addi	sp,sp,4
  8030e8:	f800283a 	ret

008030ec <LRI_timer_ISR>:

alt_u32 LRI_timer_ISR(void* context) {
  8030ec:	defffe04 	addi	sp,sp,-8
  8030f0:	df000115 	stw	fp,4(sp)
  8030f4:	df000104 	addi	fp,sp,4
  8030f8:	e13fff15 	stw	r4,-4(fp)
	LRI_ex_flag = 1;
  8030fc:	00800044 	movi	r2,1
  803100:	d0a75015 	stw	r2,-25280(gp)
	return 0;
  803104:	0005883a 	mov	r2,zero
}
  803108:	e037883a 	mov	sp,fp
  80310c:	df000017 	ldw	fp,0(sp)
  803110:	dec00104 	addi	sp,sp,4
  803114:	f800283a 	ret

00803118 <URI_timer_ISR>:

alt_u32 URI_timer_ISR(void* context) {
  803118:	defffe04 	addi	sp,sp,-8
  80311c:	df000115 	stw	fp,4(sp)
  803120:	df000104 	addi	fp,sp,4
  803124:	e13fff15 	stw	r4,-4(fp)
	URI_ex_flag = 1;
  803128:	00800044 	movi	r2,1
  80312c:	d0a75115 	stw	r2,-25276(gp)
	return 0;
  803130:	0005883a 	mov	r2,zero
}
  803134:	e037883a 	mov	sp,fp
  803138:	df000017 	ldw	fp,0(sp)
  80313c:	dec00104 	addi	sp,sp,4
  803140:	f800283a 	ret

00803144 <PVARP_timer_ISR>:

alt_u32 PVARP_timer_ISR(void* context) {
  803144:	defffe04 	addi	sp,sp,-8
  803148:	df000115 	stw	fp,4(sp)
  80314c:	df000104 	addi	fp,sp,4
  803150:	e13fff15 	stw	r4,-4(fp)
	PVARP_ex_flag = 1;
  803154:	00800044 	movi	r2,1
  803158:	d0a75215 	stw	r2,-25272(gp)
	return 0;
  80315c:	0005883a 	mov	r2,zero
}
  803160:	e037883a 	mov	sp,fp
  803164:	df000017 	ldw	fp,0(sp)
  803168:	dec00104 	addi	sp,sp,4
  80316c:	f800283a 	ret

00803170 <VRP_timer_ISR>:

alt_u32 VRP_timer_ISR(void* context) {
  803170:	defffe04 	addi	sp,sp,-8
  803174:	df000115 	stw	fp,4(sp)
  803178:	df000104 	addi	fp,sp,4
  80317c:	e13fff15 	stw	r4,-4(fp)
	VRP_ex_flag = 1;
  803180:	00800044 	movi	r2,1
  803184:	d0a75315 	stw	r2,-25268(gp)
	return 0;
  803188:	0005883a 	mov	r2,zero
}
  80318c:	e037883a 	mov	sp,fp
  803190:	df000017 	ldw	fp,0(sp)
  803194:	dec00104 	addi	sp,sp,4
  803198:	f800283a 	ret

0080319c <poll_buttons>:

// Button Polling
// Polls Button inputs
// Sets ASense and VSense flags from Inputs
// Written to SCCHarts Signals before tick
void poll_buttons() {
  80319c:	defffe04 	addi	sp,sp,-8
  8031a0:	df000115 	stw	fp,4(sp)
  8031a4:	df000104 	addi	fp,sp,4
	unsigned int buttonValue = 0;
  8031a8:	e03fff15 	stw	zero,-4(fp)
	// Fetch button inputs
	buttonValue = IORD_ALTERA_AVALON_PIO_DATA(BUTTONS_BASE);
  8031ac:	00804434 	movhi	r2,272
  8031b0:	10842804 	addi	r2,r2,4256
  8031b4:	10800037 	ldwio	r2,0(r2)
  8031b8:	e0bfff15 	stw	r2,-4(fp)
	VSense_flag = !(buttonValue & (1 << 0));
  8031bc:	e0bfff17 	ldw	r2,-4(fp)
  8031c0:	1080004c 	andi	r2,r2,1
  8031c4:	1005003a 	cmpeq	r2,r2,zero
  8031c8:	10803fcc 	andi	r2,r2,255
  8031cc:	d0a74c15 	stw	r2,-25296(gp)
	ASense_flag = !(buttonValue & (1 << 1));
  8031d0:	e0bfff17 	ldw	r2,-4(fp)
  8031d4:	1080008c 	andi	r2,r2,2
  8031d8:	1005003a 	cmpeq	r2,r2,zero
  8031dc:	10803fcc 	andi	r2,r2,255
  8031e0:	d0a74d15 	stw	r2,-25292(gp)
	return;
  8031e4:	0001883a 	nop
}
  8031e8:	e037883a 	mov	sp,fp
  8031ec:	df000017 	ldw	fp,0(sp)
  8031f0:	dec00104 	addi	sp,sp,4
  8031f4:	f800283a 	ret

008031f8 <lcd_update>:

// LCD Update
// Opens LCD Port
// Writes to LCD based on Current Mode
int lcd_update(int mode) {
  8031f8:	defffc04 	addi	sp,sp,-16
  8031fc:	dfc00315 	stw	ra,12(sp)
  803200:	df000215 	stw	fp,8(sp)
  803204:	df000204 	addi	fp,sp,8
  803208:	e13fff15 	stw	r4,-4(fp)
	FILE *lcd;
	lcd = fopen(LCD_NAME, "w");
  80320c:	01402074 	movhi	r5,129
  803210:	2952a804 	addi	r5,r5,19104
  803214:	01002074 	movhi	r4,129
  803218:	2112a904 	addi	r4,r4,19108
  80321c:	08041bc0 	call	8041bc <fopen>
  803220:	e0bffe15 	stw	r2,-8(fp)
	fprintf(lcd, "%c%s", ESC, CLEAR_LCD_STRING);
  803224:	01c02074 	movhi	r7,129
  803228:	39d2ac04 	addi	r7,r7,19120
  80322c:	018006c4 	movi	r6,27
  803230:	01402074 	movhi	r5,129
  803234:	2952ad04 	addi	r5,r5,19124
  803238:	e13ffe17 	ldw	r4,-8(fp)
  80323c:	08041fc0 	call	8041fc <fprintf>
	if (mode == 2)
  803240:	e0bfff17 	ldw	r2,-4(fp)
  803244:	10800098 	cmpnei	r2,r2,2
  803248:	1000071e 	bne	r2,zero,803268 <lcd_update+0x70>
		fprintf(lcd, "Current Mode: 2\n Using UART");
  80324c:	e1fffe17 	ldw	r7,-8(fp)
  803250:	018006c4 	movi	r6,27
  803254:	01400044 	movi	r5,1
  803258:	01002074 	movhi	r4,129
  80325c:	2112af04 	addi	r4,r4,19132
  803260:	0804d840 	call	804d84 <fwrite>
  803264:	00000906 	br	80328c <lcd_update+0x94>
	else if (mode == 1)
  803268:	e0bfff17 	ldw	r2,-4(fp)
  80326c:	10800058 	cmpnei	r2,r2,1
  803270:	1000061e 	bne	r2,zero,80328c <lcd_update+0x94>
		fprintf(lcd, "Current Mode: 1\n Using Buttons");
  803274:	e1fffe17 	ldw	r7,-8(fp)
  803278:	01800784 	movi	r6,30
  80327c:	01400044 	movi	r5,1
  803280:	01002074 	movhi	r4,129
  803284:	2112b604 	addi	r4,r4,19160
  803288:	0804d840 	call	804d84 <fwrite>
	fclose(lcd);
  80328c:	e13ffe17 	ldw	r4,-8(fp)
  803290:	0803a6c0 	call	803a6c <fclose>
	return 0;
  803294:	0005883a 	mov	r2,zero
}
  803298:	e037883a 	mov	sp,fp
  80329c:	dfc00117 	ldw	ra,4(sp)
  8032a0:	df000017 	ldw	fp,0(sp)
  8032a4:	dec00204 	addi	sp,sp,8
  8032a8:	f800283a 	ret

008032ac <switch_check>:

// Switch Polling
// Gets Mode based on Switch State
int switch_check() {
  8032ac:	defffd04 	addi	sp,sp,-12
  8032b0:	dfc00215 	stw	ra,8(sp)
  8032b4:	df000115 	stw	fp,4(sp)
  8032b8:	df000104 	addi	fp,sp,4
	/* Checks State of Switches and Updates Modes Accordingly */
	int mode = IORD_ALTERA_AVALON_PIO_DATA(SWITCHES_BASE);
  8032bc:	00804434 	movhi	r2,272
  8032c0:	10842404 	addi	r2,r2,4240
  8032c4:	10800037 	ldwio	r2,0(r2)
  8032c8:	e0bfff15 	stw	r2,-4(fp)
	//Mode Check
	if (mode & (1 << 0)) {
  8032cc:	e0bfff17 	ldw	r2,-4(fp)
  8032d0:	1080004c 	andi	r2,r2,1
  8032d4:	10000326 	beq	r2,zero,8032e4 <switch_check+0x38>
		currentMode = 2;
  8032d8:	00800084 	movi	r2,2
  8032dc:	d0a74a15 	stw	r2,-25304(gp)
  8032e0:	00000206 	br	8032ec <switch_check+0x40>
	} else {
		currentMode = 1;
  8032e4:	00800044 	movi	r2,1
  8032e8:	d0a74a15 	stw	r2,-25304(gp)
	}
	//Reset SCCharts if mode has changed
	if (currentMode != prevMode) {
  8032ec:	d0e74a17 	ldw	r3,-25304(gp)
  8032f0:	d0a74b17 	ldw	r2,-25300(gp)
  8032f4:	18800626 	beq	r3,r2,803310 <switch_check+0x64>
		lcd_update(currentMode);
  8032f8:	d0a74a17 	ldw	r2,-25304(gp)
  8032fc:	1009883a 	mov	r4,r2
  803300:	08031f80 	call	8031f8 <lcd_update>
		prevMode = currentMode;
  803304:	d0a74a17 	ldw	r2,-25304(gp)
  803308:	d0a74b15 	stw	r2,-25300(gp)
		reset();
  80330c:	08002900 	call	800290 <reset>
	}
	return 0;
  803310:	0005883a 	mov	r2,zero
}
  803314:	e037883a 	mov	sp,fp
  803318:	dfc00117 	ldw	ra,4(sp)
  80331c:	df000017 	ldw	fp,0(sp)
  803320:	dec00204 	addi	sp,sp,8
  803324:	f800283a 	ret

00803328 <timer_handler>:

// Timer Handler
// Starts and Stops Timers based on SCCHarts Signals
int timer_handler() {
  803328:	defffe04 	addi	sp,sp,-8
  80332c:	dfc00115 	stw	ra,4(sp)
  803330:	df000015 	stw	fp,0(sp)
  803334:	d839883a 	mov	fp,sp
	if (AVI_start) {
  803338:	d0a76083 	ldbu	r2,-25214(gp)
  80333c:	10803fcc 	andi	r2,r2,255
  803340:	1080201c 	xori	r2,r2,128
  803344:	10bfe004 	addi	r2,r2,-128
  803348:	10000726 	beq	r2,zero,803368 <timer_handler+0x40>
		//Start AVI timer interrupt
		alt_alarm_start(&AVI_timer, AVI_VALUE, AVI_timer_ISR, NULL);
  80334c:	000f883a 	mov	r7,zero
  803350:	01802034 	movhi	r6,128
  803354:	318c2504 	addi	r6,r6,12436
  803358:	01404b04 	movi	r5,300
  80335c:	010020b4 	movhi	r4,130
  803360:	21231304 	addi	r4,r4,-29620
  803364:	081097c0 	call	81097c <alt_alarm_start>

	}
	if (PVARP_start) {
  803368:	d0a788c3 	ldbu	r2,-25053(gp)
  80336c:	10803fcc 	andi	r2,r2,255
  803370:	1080201c 	xori	r2,r2,128
  803374:	10bfe004 	addi	r2,r2,-128
  803378:	10000726 	beq	r2,zero,803398 <timer_handler+0x70>
		//Start PVARP timer interrupt
		alt_alarm_start(&PVARP_timer, PVARP_VALUE, PVARP_timer_ISR, NULL);
  80337c:	000f883a 	mov	r7,zero
  803380:	01802034 	movhi	r6,128
  803384:	318c5104 	addi	r6,r6,12612
  803388:	01400c84 	movi	r5,50
  80338c:	010020b4 	movhi	r4,130
  803390:	21230704 	addi	r4,r4,-29668
  803394:	081097c0 	call	81097c <alt_alarm_start>
	}
	if (AEI_start) {
  803398:	d0a78f43 	ldbu	r2,-25027(gp)
  80339c:	10803fcc 	andi	r2,r2,255
  8033a0:	1080201c 	xori	r2,r2,128
  8033a4:	10bfe004 	addi	r2,r2,-128
  8033a8:	10000726 	beq	r2,zero,8033c8 <timer_handler+0xa0>
		//Start AEI timer interrupt
		alt_alarm_start(&AEI_timer, AEI_VALUE, AEI_timer_ISR, NULL);
  8033ac:	000f883a 	mov	r7,zero
  8033b0:	01802034 	movhi	r6,128
  8033b4:	318c3004 	addi	r6,r6,12480
  8033b8:	0140c804 	movi	r5,800
  8033bc:	010020b4 	movhi	r4,130
  8033c0:	21231f04 	addi	r4,r4,-29572
  8033c4:	081097c0 	call	81097c <alt_alarm_start>
	}
	if (VRP_start) {
  8033c8:	d0a78003 	ldbu	r2,-25088(gp)
  8033cc:	10803fcc 	andi	r2,r2,255
  8033d0:	1080201c 	xori	r2,r2,128
  8033d4:	10bfe004 	addi	r2,r2,-128
  8033d8:	10000726 	beq	r2,zero,8033f8 <timer_handler+0xd0>
		//Start PVARP timer interrupt
		alt_alarm_start(&VRP_timer, VRP_VALUE, VRP_timer_ISR, NULL);
  8033dc:	000f883a 	mov	r7,zero
  8033e0:	01802034 	movhi	r6,128
  8033e4:	318c5c04 	addi	r6,r6,12656
  8033e8:	01402584 	movi	r5,150
  8033ec:	010020b4 	movhi	r4,130
  8033f0:	21230d04 	addi	r4,r4,-29644
  8033f4:	081097c0 	call	81097c <alt_alarm_start>
	}
	if (LRI_start) {
  8033f8:	d0a783c3 	ldbu	r2,-25073(gp)
  8033fc:	10803fcc 	andi	r2,r2,255
  803400:	1080201c 	xori	r2,r2,128
  803404:	10bfe004 	addi	r2,r2,-128
  803408:	10000726 	beq	r2,zero,803428 <timer_handler+0x100>
		//Start LRI timer interrupt
		alt_alarm_start(&LRI_timer, LRI_VALUE, LRI_timer_ISR, NULL);
  80340c:	000f883a 	mov	r7,zero
  803410:	01802034 	movhi	r6,128
  803414:	318c3b04 	addi	r6,r6,12524
  803418:	01417704 	movi	r5,1500
  80341c:	010020b4 	movhi	r4,130
  803420:	21231904 	addi	r4,r4,-29596
  803424:	081097c0 	call	81097c <alt_alarm_start>
	}
	if (URI_start) {
  803428:	d0a7a283 	ldbu	r2,-24950(gp)
  80342c:	10803fcc 	andi	r2,r2,255
  803430:	1080201c 	xori	r2,r2,128
  803434:	10bfe004 	addi	r2,r2,-128
  803438:	10000726 	beq	r2,zero,803458 <timer_handler+0x130>
		//Start PVARP timer interrupt
		alt_alarm_start(&URI_timer, URI_VALUE, URI_timer_ISR, NULL);
  80343c:	000f883a 	mov	r7,zero
  803440:	01802034 	movhi	r6,128
  803444:	318c4604 	addi	r6,r6,12568
  803448:	0140e104 	movi	r5,900
  80344c:	010020b4 	movhi	r4,130
  803450:	21232504 	addi	r4,r4,-29548
  803454:	081097c0 	call	81097c <alt_alarm_start>
	}

	//Check Stop
	if (AVI_stop) {
  803458:	d0a76283 	ldbu	r2,-25206(gp)
  80345c:	10803fcc 	andi	r2,r2,255
  803460:	1080201c 	xori	r2,r2,128
  803464:	10bfe004 	addi	r2,r2,-128
  803468:	10000326 	beq	r2,zero,803478 <timer_handler+0x150>
		//Start AVI timer interrupt
		alt_alarm_stop(&AVI_timer);
  80346c:	010020b4 	movhi	r4,130
  803470:	21231304 	addi	r4,r4,-29620
  803474:	081150c0 	call	81150c <alt_alarm_stop>
	}
	if (PVARP_stop) {
  803478:	d0a78903 	ldbu	r2,-25052(gp)
  80347c:	10803fcc 	andi	r2,r2,255
  803480:	1080201c 	xori	r2,r2,128
  803484:	10bfe004 	addi	r2,r2,-128
  803488:	10000326 	beq	r2,zero,803498 <timer_handler+0x170>
		//Start PVARP timer interrupt
		alt_alarm_stop(&PVARP_timer);
  80348c:	010020b4 	movhi	r4,130
  803490:	21230704 	addi	r4,r4,-29668
  803494:	081150c0 	call	81150c <alt_alarm_stop>
	}
	if (AEI_stop) {
  803498:	d0a7a203 	ldbu	r2,-24952(gp)
  80349c:	10803fcc 	andi	r2,r2,255
  8034a0:	1080201c 	xori	r2,r2,128
  8034a4:	10bfe004 	addi	r2,r2,-128
  8034a8:	10000326 	beq	r2,zero,8034b8 <timer_handler+0x190>
		//Start AEI timer interrupt
		alt_alarm_stop(&AEI_timer);
  8034ac:	010020b4 	movhi	r4,130
  8034b0:	21231f04 	addi	r4,r4,-29572
  8034b4:	081150c0 	call	81150c <alt_alarm_stop>
	}
	if (VRP_stop) {
  8034b8:	d0a78883 	ldbu	r2,-25054(gp)
  8034bc:	10803fcc 	andi	r2,r2,255
  8034c0:	1080201c 	xori	r2,r2,128
  8034c4:	10bfe004 	addi	r2,r2,-128
  8034c8:	10000326 	beq	r2,zero,8034d8 <timer_handler+0x1b0>
		//Start VRP timer interrupt
		alt_alarm_stop(&VRP_timer);
  8034cc:	010020b4 	movhi	r4,130
  8034d0:	21230d04 	addi	r4,r4,-29644
  8034d4:	081150c0 	call	81150c <alt_alarm_stop>
	}
	if (LRI_stop) {
  8034d8:	d0a76b03 	ldbu	r2,-25172(gp)
  8034dc:	10803fcc 	andi	r2,r2,255
  8034e0:	1080201c 	xori	r2,r2,128
  8034e4:	10bfe004 	addi	r2,r2,-128
  8034e8:	10000326 	beq	r2,zero,8034f8 <timer_handler+0x1d0>
		//Start LRI timer interrupt
		alt_alarm_stop(&LRI_timer);
  8034ec:	010020b4 	movhi	r4,130
  8034f0:	21231904 	addi	r4,r4,-29596
  8034f4:	081150c0 	call	81150c <alt_alarm_stop>
	}
	if (URI_stop) {
  8034f8:	d0a7a343 	ldbu	r2,-24947(gp)
  8034fc:	10803fcc 	andi	r2,r2,255
  803500:	1080201c 	xori	r2,r2,128
  803504:	10bfe004 	addi	r2,r2,-128
  803508:	10000326 	beq	r2,zero,803518 <timer_handler+0x1f0>
		//Start PVARP timer interrupt
		alt_alarm_stop(&URI_timer);
  80350c:	010020b4 	movhi	r4,130
  803510:	21232504 	addi	r4,r4,-29548
  803514:	081150c0 	call	81150c <alt_alarm_stop>
	}
	return 0;
  803518:	0005883a 	mov	r2,zero
}
  80351c:	e037883a 	mov	sp,fp
  803520:	dfc00117 	ldw	ra,4(sp)
  803524:	df000017 	ldw	fp,0(sp)
  803528:	dec00204 	addi	sp,sp,8
  80352c:	f800283a 	ret

00803530 <setLights>:

// Lights Handler
// Sets lights based on SCCharts Signals
int setLights() {
  803530:	deffff04 	addi	sp,sp,-4
  803534:	df000015 	stw	fp,0(sp)
  803538:	d839883a 	mov	fp,sp
	if (APace) {
  80353c:	d0a75543 	ldbu	r2,-25259(gp)
  803540:	10803fcc 	andi	r2,r2,255
  803544:	1080201c 	xori	r2,r2,128
  803548:	10bfe004 	addi	r2,r2,-128
  80354c:	10000526 	beq	r2,zero,803564 <setLights+0x34>
		IOWR_ALTERA_AVALON_PIO_DATA(LEDS_GREEN_BASE, APACE_LED);
  803550:	00c00204 	movi	r3,8
  803554:	00804434 	movhi	r2,272
  803558:	10841c04 	addi	r2,r2,4208
  80355c:	10c00035 	stwio	r3,0(r2)
  803560:	00002206 	br	8035ec <setLights+0xbc>
	} else if (VPace) {
  803564:	d0a79f03 	ldbu	r2,-24964(gp)
  803568:	10803fcc 	andi	r2,r2,255
  80356c:	1080201c 	xori	r2,r2,128
  803570:	10bfe004 	addi	r2,r2,-128
  803574:	10000526 	beq	r2,zero,80358c <setLights+0x5c>
		IOWR_ALTERA_AVALON_PIO_DATA(LEDS_GREEN_BASE, VPACE_LED);
  803578:	00c00104 	movi	r3,4
  80357c:	00804434 	movhi	r2,272
  803580:	10841c04 	addi	r2,r2,4208
  803584:	10c00035 	stwio	r3,0(r2)
  803588:	00001806 	br	8035ec <setLights+0xbc>
	} else if (ASense) {
  80358c:	d0a76bc3 	ldbu	r2,-25169(gp)
  803590:	10803fcc 	andi	r2,r2,255
  803594:	1080201c 	xori	r2,r2,128
  803598:	10bfe004 	addi	r2,r2,-128
  80359c:	10000526 	beq	r2,zero,8035b4 <setLights+0x84>
		IOWR_ALTERA_AVALON_PIO_DATA(LEDS_GREEN_BASE, ASENSE_LED);
  8035a0:	00c00084 	movi	r3,2
  8035a4:	00804434 	movhi	r2,272
  8035a8:	10841c04 	addi	r2,r2,4208
  8035ac:	10c00035 	stwio	r3,0(r2)
  8035b0:	00000e06 	br	8035ec <setLights+0xbc>
	} else if (VSense) {
  8035b4:	d0a77dc3 	ldbu	r2,-25097(gp)
  8035b8:	10803fcc 	andi	r2,r2,255
  8035bc:	1080201c 	xori	r2,r2,128
  8035c0:	10bfe004 	addi	r2,r2,-128
  8035c4:	10000526 	beq	r2,zero,8035dc <setLights+0xac>
		IOWR_ALTERA_AVALON_PIO_DATA(LEDS_GREEN_BASE, VSENSE_LED);
  8035c8:	00c00044 	movi	r3,1
  8035cc:	00804434 	movhi	r2,272
  8035d0:	10841c04 	addi	r2,r2,4208
  8035d4:	10c00035 	stwio	r3,0(r2)
  8035d8:	00000406 	br	8035ec <setLights+0xbc>
	} else {
		IOWR_ALTERA_AVALON_PIO_DATA(LEDS_GREEN_BASE, 0);
  8035dc:	0007883a 	mov	r3,zero
  8035e0:	00804434 	movhi	r2,272
  8035e4:	10841c04 	addi	r2,r2,4208
  8035e8:	10c00035 	stwio	r3,0(r2)
	}
	return 0;
  8035ec:	0005883a 	mov	r2,zero
}
  8035f0:	e037883a 	mov	sp,fp
  8035f4:	df000017 	ldw	fp,0(sp)
  8035f8:	dec00104 	addi	sp,sp,4
  8035fc:	f800283a 	ret

00803600 <setFlags>:

// Flags Handler
// Writes Flags to SCCHart Signals
int setFlags() {
  803600:	defffd04 	addi	sp,sp,-12
  803604:	dfc00215 	stw	ra,8(sp)
  803608:	df000115 	stw	fp,4(sp)
  80360c:	dc000015 	stw	r16,0(sp)
  803610:	df000104 	addi	fp,sp,4
 * alt_nticks() returns the elapsed number of system clock ticks since reset.
 */

static ALT_INLINE alt_u32 ALT_ALWAYS_INLINE alt_nticks (void)
{
  return _alt_nticks;
  803614:	d0a7b217 	ldw	r2,-24888(gp)
	// Writes Button Flags only after 10 ms have based since last button press
	count2 = alt_nticks(); // Get Current Tick Count
  803618:	d0a75e15 	stw	r2,-25224(gp)
	if (currentMode == 1) {
  80361c:	d0a74a17 	ldw	r2,-25304(gp)
  803620:	10800058 	cmpnei	r2,r2,1
  803624:	1000141e 	bne	r2,zero,803678 <setFlags+0x78>
		if ((count2 / tps) + 1 > (count1 / tps) + 1) {
  803628:	d0a75e17 	ldw	r2,-25224(gp)
  80362c:	d0e77017 	ldw	r3,-25152(gp)
  803630:	180b883a 	mov	r5,r3
  803634:	1009883a 	mov	r4,r2
  803638:	08037c80 	call	8037c8 <__divsi3>
  80363c:	14000044 	addi	r16,r2,1
  803640:	d0a79017 	ldw	r2,-25024(gp)
  803644:	d0e77017 	ldw	r3,-25152(gp)
  803648:	180b883a 	mov	r5,r3
  80364c:	1009883a 	mov	r4,r2
  803650:	08037c80 	call	8037c8 <__divsi3>
  803654:	10800044 	addi	r2,r2,1
  803658:	14000b0e 	bge	r2,r16,803688 <setFlags+0x88>
  80365c:	d0a7b217 	ldw	r2,-24888(gp)
			// Check if 10ms has passed since last press
			// Update Tick counts
			count1 = alt_nticks();
  803660:	d0a79015 	stw	r2,-25024(gp)
			VSense = VSense_flag;
  803664:	d0a74c17 	ldw	r2,-25296(gp)
  803668:	d0a77dc5 	stb	r2,-25097(gp)
			ASense = ASense_flag;
  80366c:	d0a74d17 	ldw	r2,-25292(gp)
  803670:	d0a76bc5 	stb	r2,-25169(gp)
  803674:	00000406 	br	803688 <setFlags+0x88>
		}
	} else {
		VSense = VSense_flag;
  803678:	d0a74c17 	ldw	r2,-25296(gp)
  80367c:	d0a77dc5 	stb	r2,-25097(gp)
		ASense = ASense_flag;
  803680:	d0a74d17 	ldw	r2,-25292(gp)
  803684:	d0a76bc5 	stb	r2,-25169(gp)
	}

	// Timer_ex_flags:
	AVI_ex = AVI_ex_flag;
  803688:	d0a74e17 	ldw	r2,-25288(gp)
  80368c:	d0a77b05 	stb	r2,-25108(gp)
	AEI_ex = AEI_ex_flag;
  803690:	d0a74f17 	ldw	r2,-25284(gp)
  803694:	d0a75885 	stb	r2,-25246(gp)
	LRI_ex = LRI_ex_flag;
  803698:	d0a75017 	ldw	r2,-25280(gp)
  80369c:	d0a77685 	stb	r2,-25126(gp)
	URI_ex = URI_ex_flag;
  8036a0:	d0a75117 	ldw	r2,-25276(gp)
  8036a4:	d0a78105 	stb	r2,-25084(gp)
	PVARP_ex = PVARP_ex_flag;
  8036a8:	d0a75217 	ldw	r2,-25272(gp)
  8036ac:	d0a79385 	stb	r2,-25010(gp)
	VRP_ex = VRP_ex_flag;
  8036b0:	d0a75317 	ldw	r2,-25268(gp)
  8036b4:	d0a77bc5 	stb	r2,-25105(gp)

	// Clear Flags After SCCHarts Signals Set
	VSense_flag = 0;
  8036b8:	d0274c15 	stw	zero,-25296(gp)
	ASense_flag = 0;
  8036bc:	d0274d15 	stw	zero,-25292(gp)
	AVI_ex_flag = 0;
  8036c0:	d0274e15 	stw	zero,-25288(gp)
	AEI_ex_flag = 0;
  8036c4:	d0274f15 	stw	zero,-25284(gp)
	LRI_ex_flag = 0;
  8036c8:	d0275015 	stw	zero,-25280(gp)
	URI_ex_flag = 0;
  8036cc:	d0275115 	stw	zero,-25276(gp)
	PVARP_ex_flag = 0;
  8036d0:	d0275215 	stw	zero,-25272(gp)
	VRP_ex_flag = 0;
  8036d4:	d0275315 	stw	zero,-25268(gp)
	return 0;
  8036d8:	0005883a 	mov	r2,zero
}
  8036dc:	e6ffff04 	addi	sp,fp,-4
  8036e0:	dfc00217 	ldw	ra,8(sp)
  8036e4:	df000117 	ldw	fp,4(sp)
  8036e8:	dc000017 	ldw	r16,0(sp)
  8036ec:	dec00304 	addi	sp,sp,12
  8036f0:	f800283a 	ret

008036f4 <clearSignals>:

// Clear SCCharts Signals
// Signals remain high unless cleared
// Clear all signals after tick
int clearSignals() {
  8036f4:	deffff04 	addi	sp,sp,-4
  8036f8:	df000015 	stw	fp,0(sp)
  8036fc:	d839883a 	mov	fp,sp
	VSense = 0;
  803700:	d0277dc5 	stb	zero,-25097(gp)
	ASense = 0;
  803704:	d0276bc5 	stb	zero,-25169(gp)
	AVI_ex = 0;
  803708:	d0277b05 	stb	zero,-25108(gp)
	AEI_ex = 0;
  80370c:	d0275885 	stb	zero,-25246(gp)
	LRI_ex = 0;
  803710:	d0277685 	stb	zero,-25126(gp)
	URI_ex = 0;
  803714:	d0278105 	stb	zero,-25084(gp)
	PVARP_ex = 0;
  803718:	d0279385 	stb	zero,-25010(gp)
	VRP_ex = 0;
  80371c:	d0277bc5 	stb	zero,-25105(gp)
	return 0;
  803720:	0005883a 	mov	r2,zero
}
  803724:	e037883a 	mov	sp,fp
  803728:	df000017 	ldw	fp,0(sp)
  80372c:	dec00104 	addi	sp,sp,4
  803730:	f800283a 	ret

00803734 <main>:

int main(void) {
  803734:	defffe04 	addi	sp,sp,-8
  803738:	dfc00115 	stw	ra,4(sp)
  80373c:	df000015 	stw	fp,0(sp)
  803740:	d839883a 	mov	fp,sp
  803744:	d0a7b217 	ldw	r2,-24888(gp)
	// Initialize Values
	// Get Initial Tick Count
	count1 = alt_nticks();
  803748:	d0a79015 	stw	r2,-25024(gp)
 * Obtain the system clock rate in ticks/s. 
 */

static ALT_INLINE alt_u32 ALT_ALWAYS_INLINE alt_ticks_per_second (void)
{
  return _alt_tick_rate;
  80374c:	d0a7b117 	ldw	r2,-24892(gp)
	// Ticks per 10 ms
	tps = alt_ticks_per_second() / 100;
  803750:	01401904 	movi	r5,100
  803754:	1009883a 	mov	r4,r2
  803758:	08038c00 	call	8038c0 <__udivsi3>
  80375c:	d0a77015 	stw	r2,-25152(gp)
	// Open UART Port (Non blocking)
	fd = open(UART_NAME, O_NONBLOCK | O_RDWR);
  803760:	01500084 	movi	r5,16386
  803764:	01002074 	movhi	r4,129
  803768:	2112be04 	addi	r4,r4,19192
  80376c:	081116c0 	call	81116c <open>
  803770:	d0a76d15 	stw	r2,-25164(gp)
	// Start SCCHarts Logic
	reset();
  803774:	08002900 	call	800290 <reset>
	tick();
  803778:	08003400 	call	800340 <tick>
	while (1) {
		//Poll Switches for Mode Change
		switch_check();
  80377c:	08032ac0 	call	8032ac <switch_check>
		//Poll Buttons for Input Flags
		if (currentMode == 1) {
  803780:	d0a74a17 	ldw	r2,-25304(gp)
  803784:	10800058 	cmpnei	r2,r2,1
  803788:	1000011e 	bne	r2,zero,803790 <main+0x5c>
			poll_buttons();
  80378c:	080319c0 	call	80319c <poll_buttons>
		}
		// UART Receive for Mode 2
		if (currentMode == 2) {
  803790:	d0a74a17 	ldw	r2,-25304(gp)
  803794:	10800098 	cmpnei	r2,r2,2
  803798:	1000011e 	bne	r2,zero,8037a0 <main+0x6c>
			UART_receiver();
  80379c:	0802f580 	call	802f58 <UART_receiver>
		}
		// Update Flags in the SCCharts code
		setFlags();
  8037a0:	08036000 	call	803600 <setFlags>
		// Poll timers in SCCharts code
		timer_handler();
  8037a4:	08033280 	call	803328 <timer_handler>
		// Set Lights
		setLights();
  8037a8:	08035300 	call	803530 <setLights>
		// Tick!
		tick();
  8037ac:	08003400 	call	800340 <tick>
		// UART Send for Mode 2
		if (currentMode == 2) {
  8037b0:	d0a74a17 	ldw	r2,-25304(gp)
  8037b4:	10800098 	cmpnei	r2,r2,2
  8037b8:	1000011e 	bne	r2,zero,8037c0 <main+0x8c>
			UART_send();
  8037bc:	0802fec0 	call	802fec <UART_send>
		}
		// Clear Inputs
		clearSignals();
  8037c0:	08036f40 	call	8036f4 <clearSignals>
	}
  8037c4:	003fed06 	br	80377c <__alt_mem_onchip_mem+0xff78377c>

008037c8 <__divsi3>:
  8037c8:	20001b16 	blt	r4,zero,803838 <__divsi3+0x70>
  8037cc:	000f883a 	mov	r7,zero
  8037d0:	28001616 	blt	r5,zero,80382c <__divsi3+0x64>
  8037d4:	200d883a 	mov	r6,r4
  8037d8:	29001a2e 	bgeu	r5,r4,803844 <__divsi3+0x7c>
  8037dc:	00800804 	movi	r2,32
  8037e0:	00c00044 	movi	r3,1
  8037e4:	00000106 	br	8037ec <__divsi3+0x24>
  8037e8:	10000d26 	beq	r2,zero,803820 <__divsi3+0x58>
  8037ec:	294b883a 	add	r5,r5,r5
  8037f0:	10bfffc4 	addi	r2,r2,-1
  8037f4:	18c7883a 	add	r3,r3,r3
  8037f8:	293ffb36 	bltu	r5,r4,8037e8 <__alt_mem_onchip_mem+0xff7837e8>
  8037fc:	0005883a 	mov	r2,zero
  803800:	18000726 	beq	r3,zero,803820 <__divsi3+0x58>
  803804:	0005883a 	mov	r2,zero
  803808:	31400236 	bltu	r6,r5,803814 <__divsi3+0x4c>
  80380c:	314dc83a 	sub	r6,r6,r5
  803810:	10c4b03a 	or	r2,r2,r3
  803814:	1806d07a 	srli	r3,r3,1
  803818:	280ad07a 	srli	r5,r5,1
  80381c:	183ffa1e 	bne	r3,zero,803808 <__alt_mem_onchip_mem+0xff783808>
  803820:	38000126 	beq	r7,zero,803828 <__divsi3+0x60>
  803824:	0085c83a 	sub	r2,zero,r2
  803828:	f800283a 	ret
  80382c:	014bc83a 	sub	r5,zero,r5
  803830:	39c0005c 	xori	r7,r7,1
  803834:	003fe706 	br	8037d4 <__alt_mem_onchip_mem+0xff7837d4>
  803838:	0109c83a 	sub	r4,zero,r4
  80383c:	01c00044 	movi	r7,1
  803840:	003fe306 	br	8037d0 <__alt_mem_onchip_mem+0xff7837d0>
  803844:	00c00044 	movi	r3,1
  803848:	003fee06 	br	803804 <__alt_mem_onchip_mem+0xff783804>

0080384c <__modsi3>:
  80384c:	20001716 	blt	r4,zero,8038ac <__modsi3+0x60>
  803850:	000f883a 	mov	r7,zero
  803854:	2005883a 	mov	r2,r4
  803858:	28001216 	blt	r5,zero,8038a4 <__modsi3+0x58>
  80385c:	2900162e 	bgeu	r5,r4,8038b8 <__modsi3+0x6c>
  803860:	01800804 	movi	r6,32
  803864:	00c00044 	movi	r3,1
  803868:	00000106 	br	803870 <__modsi3+0x24>
  80386c:	30000a26 	beq	r6,zero,803898 <__modsi3+0x4c>
  803870:	294b883a 	add	r5,r5,r5
  803874:	31bfffc4 	addi	r6,r6,-1
  803878:	18c7883a 	add	r3,r3,r3
  80387c:	293ffb36 	bltu	r5,r4,80386c <__alt_mem_onchip_mem+0xff78386c>
  803880:	18000526 	beq	r3,zero,803898 <__modsi3+0x4c>
  803884:	1806d07a 	srli	r3,r3,1
  803888:	11400136 	bltu	r2,r5,803890 <__modsi3+0x44>
  80388c:	1145c83a 	sub	r2,r2,r5
  803890:	280ad07a 	srli	r5,r5,1
  803894:	183ffb1e 	bne	r3,zero,803884 <__alt_mem_onchip_mem+0xff783884>
  803898:	38000126 	beq	r7,zero,8038a0 <__modsi3+0x54>
  80389c:	0085c83a 	sub	r2,zero,r2
  8038a0:	f800283a 	ret
  8038a4:	014bc83a 	sub	r5,zero,r5
  8038a8:	003fec06 	br	80385c <__alt_mem_onchip_mem+0xff78385c>
  8038ac:	0109c83a 	sub	r4,zero,r4
  8038b0:	01c00044 	movi	r7,1
  8038b4:	003fe706 	br	803854 <__alt_mem_onchip_mem+0xff783854>
  8038b8:	00c00044 	movi	r3,1
  8038bc:	003ff106 	br	803884 <__alt_mem_onchip_mem+0xff783884>

008038c0 <__udivsi3>:
  8038c0:	200d883a 	mov	r6,r4
  8038c4:	2900152e 	bgeu	r5,r4,80391c <__udivsi3+0x5c>
  8038c8:	28001416 	blt	r5,zero,80391c <__udivsi3+0x5c>
  8038cc:	00800804 	movi	r2,32
  8038d0:	00c00044 	movi	r3,1
  8038d4:	00000206 	br	8038e0 <__udivsi3+0x20>
  8038d8:	10000e26 	beq	r2,zero,803914 <__udivsi3+0x54>
  8038dc:	28000516 	blt	r5,zero,8038f4 <__udivsi3+0x34>
  8038e0:	294b883a 	add	r5,r5,r5
  8038e4:	10bfffc4 	addi	r2,r2,-1
  8038e8:	18c7883a 	add	r3,r3,r3
  8038ec:	293ffa36 	bltu	r5,r4,8038d8 <__alt_mem_onchip_mem+0xff7838d8>
  8038f0:	18000826 	beq	r3,zero,803914 <__udivsi3+0x54>
  8038f4:	0005883a 	mov	r2,zero
  8038f8:	31400236 	bltu	r6,r5,803904 <__udivsi3+0x44>
  8038fc:	314dc83a 	sub	r6,r6,r5
  803900:	10c4b03a 	or	r2,r2,r3
  803904:	1806d07a 	srli	r3,r3,1
  803908:	280ad07a 	srli	r5,r5,1
  80390c:	183ffa1e 	bne	r3,zero,8038f8 <__alt_mem_onchip_mem+0xff7838f8>
  803910:	f800283a 	ret
  803914:	0005883a 	mov	r2,zero
  803918:	f800283a 	ret
  80391c:	00c00044 	movi	r3,1
  803920:	003ff406 	br	8038f4 <__alt_mem_onchip_mem+0xff7838f4>

00803924 <__umodsi3>:
  803924:	2005883a 	mov	r2,r4
  803928:	2900122e 	bgeu	r5,r4,803974 <__umodsi3+0x50>
  80392c:	28001116 	blt	r5,zero,803974 <__umodsi3+0x50>
  803930:	01800804 	movi	r6,32
  803934:	00c00044 	movi	r3,1
  803938:	00000206 	br	803944 <__umodsi3+0x20>
  80393c:	30000c26 	beq	r6,zero,803970 <__umodsi3+0x4c>
  803940:	28000516 	blt	r5,zero,803958 <__umodsi3+0x34>
  803944:	294b883a 	add	r5,r5,r5
  803948:	31bfffc4 	addi	r6,r6,-1
  80394c:	18c7883a 	add	r3,r3,r3
  803950:	293ffa36 	bltu	r5,r4,80393c <__alt_mem_onchip_mem+0xff78393c>
  803954:	18000626 	beq	r3,zero,803970 <__umodsi3+0x4c>
  803958:	1806d07a 	srli	r3,r3,1
  80395c:	11400136 	bltu	r2,r5,803964 <__umodsi3+0x40>
  803960:	1145c83a 	sub	r2,r2,r5
  803964:	280ad07a 	srli	r5,r5,1
  803968:	183ffb1e 	bne	r3,zero,803958 <__alt_mem_onchip_mem+0xff783958>
  80396c:	f800283a 	ret
  803970:	f800283a 	ret
  803974:	00c00044 	movi	r3,1
  803978:	003ff706 	br	803958 <__alt_mem_onchip_mem+0xff783958>

0080397c <_fclose_r>:
  80397c:	28003926 	beq	r5,zero,803a64 <_fclose_r+0xe8>
  803980:	defffc04 	addi	sp,sp,-16
  803984:	dc400115 	stw	r17,4(sp)
  803988:	dc000015 	stw	r16,0(sp)
  80398c:	dfc00315 	stw	ra,12(sp)
  803990:	dc800215 	stw	r18,8(sp)
  803994:	2023883a 	mov	r17,r4
  803998:	2821883a 	mov	r16,r5
  80399c:	20000226 	beq	r4,zero,8039a8 <_fclose_r+0x2c>
  8039a0:	20800e17 	ldw	r2,56(r4)
  8039a4:	10002726 	beq	r2,zero,803a44 <_fclose_r+0xc8>
  8039a8:	8080030f 	ldh	r2,12(r16)
  8039ac:	1000071e 	bne	r2,zero,8039cc <_fclose_r+0x50>
  8039b0:	0005883a 	mov	r2,zero
  8039b4:	dfc00317 	ldw	ra,12(sp)
  8039b8:	dc800217 	ldw	r18,8(sp)
  8039bc:	dc400117 	ldw	r17,4(sp)
  8039c0:	dc000017 	ldw	r16,0(sp)
  8039c4:	dec00404 	addi	sp,sp,16
  8039c8:	f800283a 	ret
  8039cc:	800b883a 	mov	r5,r16
  8039d0:	8809883a 	mov	r4,r17
  8039d4:	0803a800 	call	803a80 <__sflush_r>
  8039d8:	1025883a 	mov	r18,r2
  8039dc:	80800b17 	ldw	r2,44(r16)
  8039e0:	10000426 	beq	r2,zero,8039f4 <_fclose_r+0x78>
  8039e4:	81400717 	ldw	r5,28(r16)
  8039e8:	8809883a 	mov	r4,r17
  8039ec:	103ee83a 	callr	r2
  8039f0:	10001616 	blt	r2,zero,803a4c <_fclose_r+0xd0>
  8039f4:	8080030b 	ldhu	r2,12(r16)
  8039f8:	1080200c 	andi	r2,r2,128
  8039fc:	1000151e 	bne	r2,zero,803a54 <_fclose_r+0xd8>
  803a00:	81400c17 	ldw	r5,48(r16)
  803a04:	28000526 	beq	r5,zero,803a1c <_fclose_r+0xa0>
  803a08:	80801004 	addi	r2,r16,64
  803a0c:	28800226 	beq	r5,r2,803a18 <_fclose_r+0x9c>
  803a10:	8809883a 	mov	r4,r17
  803a14:	08043440 	call	804344 <_free_r>
  803a18:	80000c15 	stw	zero,48(r16)
  803a1c:	81401117 	ldw	r5,68(r16)
  803a20:	28000326 	beq	r5,zero,803a30 <_fclose_r+0xb4>
  803a24:	8809883a 	mov	r4,r17
  803a28:	08043440 	call	804344 <_free_r>
  803a2c:	80001115 	stw	zero,68(r16)
  803a30:	08040880 	call	804088 <__sfp_lock_acquire>
  803a34:	8000030d 	sth	zero,12(r16)
  803a38:	080408c0 	call	80408c <__sfp_lock_release>
  803a3c:	9005883a 	mov	r2,r18
  803a40:	003fdc06 	br	8039b4 <__alt_mem_onchip_mem+0xff7839b4>
  803a44:	08040780 	call	804078 <__sinit>
  803a48:	003fd706 	br	8039a8 <__alt_mem_onchip_mem+0xff7839a8>
  803a4c:	04bfffc4 	movi	r18,-1
  803a50:	003fe806 	br	8039f4 <__alt_mem_onchip_mem+0xff7839f4>
  803a54:	81400417 	ldw	r5,16(r16)
  803a58:	8809883a 	mov	r4,r17
  803a5c:	08043440 	call	804344 <_free_r>
  803a60:	003fe706 	br	803a00 <__alt_mem_onchip_mem+0xff783a00>
  803a64:	0005883a 	mov	r2,zero
  803a68:	f800283a 	ret

00803a6c <fclose>:
  803a6c:	00802074 	movhi	r2,129
  803a70:	109b4a04 	addi	r2,r2,27944
  803a74:	200b883a 	mov	r5,r4
  803a78:	11000017 	ldw	r4,0(r2)
  803a7c:	080397c1 	jmpi	80397c <_fclose_r>

00803a80 <__sflush_r>:
  803a80:	2880030b 	ldhu	r2,12(r5)
  803a84:	defffb04 	addi	sp,sp,-20
  803a88:	dcc00315 	stw	r19,12(sp)
  803a8c:	dc400115 	stw	r17,4(sp)
  803a90:	dfc00415 	stw	ra,16(sp)
  803a94:	dc800215 	stw	r18,8(sp)
  803a98:	dc000015 	stw	r16,0(sp)
  803a9c:	10c0020c 	andi	r3,r2,8
  803aa0:	2823883a 	mov	r17,r5
  803aa4:	2027883a 	mov	r19,r4
  803aa8:	1800311e 	bne	r3,zero,803b70 <__sflush_r+0xf0>
  803aac:	28c00117 	ldw	r3,4(r5)
  803ab0:	10820014 	ori	r2,r2,2048
  803ab4:	2880030d 	sth	r2,12(r5)
  803ab8:	00c04b0e 	bge	zero,r3,803be8 <__sflush_r+0x168>
  803abc:	8a000a17 	ldw	r8,40(r17)
  803ac0:	40002326 	beq	r8,zero,803b50 <__sflush_r+0xd0>
  803ac4:	9c000017 	ldw	r16,0(r19)
  803ac8:	10c4000c 	andi	r3,r2,4096
  803acc:	98000015 	stw	zero,0(r19)
  803ad0:	18004826 	beq	r3,zero,803bf4 <__sflush_r+0x174>
  803ad4:	89801417 	ldw	r6,80(r17)
  803ad8:	10c0010c 	andi	r3,r2,4
  803adc:	18000626 	beq	r3,zero,803af8 <__sflush_r+0x78>
  803ae0:	88c00117 	ldw	r3,4(r17)
  803ae4:	88800c17 	ldw	r2,48(r17)
  803ae8:	30cdc83a 	sub	r6,r6,r3
  803aec:	10000226 	beq	r2,zero,803af8 <__sflush_r+0x78>
  803af0:	88800f17 	ldw	r2,60(r17)
  803af4:	308dc83a 	sub	r6,r6,r2
  803af8:	89400717 	ldw	r5,28(r17)
  803afc:	000f883a 	mov	r7,zero
  803b00:	9809883a 	mov	r4,r19
  803b04:	403ee83a 	callr	r8
  803b08:	00ffffc4 	movi	r3,-1
  803b0c:	10c04426 	beq	r2,r3,803c20 <__sflush_r+0x1a0>
  803b10:	88c0030b 	ldhu	r3,12(r17)
  803b14:	89000417 	ldw	r4,16(r17)
  803b18:	88000115 	stw	zero,4(r17)
  803b1c:	197dffcc 	andi	r5,r3,63487
  803b20:	8940030d 	sth	r5,12(r17)
  803b24:	89000015 	stw	r4,0(r17)
  803b28:	18c4000c 	andi	r3,r3,4096
  803b2c:	18002c1e 	bne	r3,zero,803be0 <__sflush_r+0x160>
  803b30:	89400c17 	ldw	r5,48(r17)
  803b34:	9c000015 	stw	r16,0(r19)
  803b38:	28000526 	beq	r5,zero,803b50 <__sflush_r+0xd0>
  803b3c:	88801004 	addi	r2,r17,64
  803b40:	28800226 	beq	r5,r2,803b4c <__sflush_r+0xcc>
  803b44:	9809883a 	mov	r4,r19
  803b48:	08043440 	call	804344 <_free_r>
  803b4c:	88000c15 	stw	zero,48(r17)
  803b50:	0005883a 	mov	r2,zero
  803b54:	dfc00417 	ldw	ra,16(sp)
  803b58:	dcc00317 	ldw	r19,12(sp)
  803b5c:	dc800217 	ldw	r18,8(sp)
  803b60:	dc400117 	ldw	r17,4(sp)
  803b64:	dc000017 	ldw	r16,0(sp)
  803b68:	dec00504 	addi	sp,sp,20
  803b6c:	f800283a 	ret
  803b70:	2c800417 	ldw	r18,16(r5)
  803b74:	903ff626 	beq	r18,zero,803b50 <__alt_mem_onchip_mem+0xff783b50>
  803b78:	2c000017 	ldw	r16,0(r5)
  803b7c:	108000cc 	andi	r2,r2,3
  803b80:	2c800015 	stw	r18,0(r5)
  803b84:	84a1c83a 	sub	r16,r16,r18
  803b88:	1000131e 	bne	r2,zero,803bd8 <__sflush_r+0x158>
  803b8c:	28800517 	ldw	r2,20(r5)
  803b90:	88800215 	stw	r2,8(r17)
  803b94:	04000316 	blt	zero,r16,803ba4 <__sflush_r+0x124>
  803b98:	003fed06 	br	803b50 <__alt_mem_onchip_mem+0xff783b50>
  803b9c:	90a5883a 	add	r18,r18,r2
  803ba0:	043feb0e 	bge	zero,r16,803b50 <__alt_mem_onchip_mem+0xff783b50>
  803ba4:	88800917 	ldw	r2,36(r17)
  803ba8:	89400717 	ldw	r5,28(r17)
  803bac:	800f883a 	mov	r7,r16
  803bb0:	900d883a 	mov	r6,r18
  803bb4:	9809883a 	mov	r4,r19
  803bb8:	103ee83a 	callr	r2
  803bbc:	80a1c83a 	sub	r16,r16,r2
  803bc0:	00bff616 	blt	zero,r2,803b9c <__alt_mem_onchip_mem+0xff783b9c>
  803bc4:	88c0030b 	ldhu	r3,12(r17)
  803bc8:	00bfffc4 	movi	r2,-1
  803bcc:	18c01014 	ori	r3,r3,64
  803bd0:	88c0030d 	sth	r3,12(r17)
  803bd4:	003fdf06 	br	803b54 <__alt_mem_onchip_mem+0xff783b54>
  803bd8:	0005883a 	mov	r2,zero
  803bdc:	003fec06 	br	803b90 <__alt_mem_onchip_mem+0xff783b90>
  803be0:	88801415 	stw	r2,80(r17)
  803be4:	003fd206 	br	803b30 <__alt_mem_onchip_mem+0xff783b30>
  803be8:	28c00f17 	ldw	r3,60(r5)
  803bec:	00ffb316 	blt	zero,r3,803abc <__alt_mem_onchip_mem+0xff783abc>
  803bf0:	003fd706 	br	803b50 <__alt_mem_onchip_mem+0xff783b50>
  803bf4:	89400717 	ldw	r5,28(r17)
  803bf8:	000d883a 	mov	r6,zero
  803bfc:	01c00044 	movi	r7,1
  803c00:	9809883a 	mov	r4,r19
  803c04:	403ee83a 	callr	r8
  803c08:	100d883a 	mov	r6,r2
  803c0c:	00bfffc4 	movi	r2,-1
  803c10:	30801426 	beq	r6,r2,803c64 <__sflush_r+0x1e4>
  803c14:	8880030b 	ldhu	r2,12(r17)
  803c18:	8a000a17 	ldw	r8,40(r17)
  803c1c:	003fae06 	br	803ad8 <__alt_mem_onchip_mem+0xff783ad8>
  803c20:	98c00017 	ldw	r3,0(r19)
  803c24:	183fba26 	beq	r3,zero,803b10 <__alt_mem_onchip_mem+0xff783b10>
  803c28:	01000744 	movi	r4,29
  803c2c:	19000626 	beq	r3,r4,803c48 <__sflush_r+0x1c8>
  803c30:	01000584 	movi	r4,22
  803c34:	19000426 	beq	r3,r4,803c48 <__sflush_r+0x1c8>
  803c38:	88c0030b 	ldhu	r3,12(r17)
  803c3c:	18c01014 	ori	r3,r3,64
  803c40:	88c0030d 	sth	r3,12(r17)
  803c44:	003fc306 	br	803b54 <__alt_mem_onchip_mem+0xff783b54>
  803c48:	8880030b 	ldhu	r2,12(r17)
  803c4c:	88c00417 	ldw	r3,16(r17)
  803c50:	88000115 	stw	zero,4(r17)
  803c54:	10bdffcc 	andi	r2,r2,63487
  803c58:	8880030d 	sth	r2,12(r17)
  803c5c:	88c00015 	stw	r3,0(r17)
  803c60:	003fb306 	br	803b30 <__alt_mem_onchip_mem+0xff783b30>
  803c64:	98800017 	ldw	r2,0(r19)
  803c68:	103fea26 	beq	r2,zero,803c14 <__alt_mem_onchip_mem+0xff783c14>
  803c6c:	00c00744 	movi	r3,29
  803c70:	10c00226 	beq	r2,r3,803c7c <__sflush_r+0x1fc>
  803c74:	00c00584 	movi	r3,22
  803c78:	10c0031e 	bne	r2,r3,803c88 <__sflush_r+0x208>
  803c7c:	9c000015 	stw	r16,0(r19)
  803c80:	0005883a 	mov	r2,zero
  803c84:	003fb306 	br	803b54 <__alt_mem_onchip_mem+0xff783b54>
  803c88:	88c0030b 	ldhu	r3,12(r17)
  803c8c:	3005883a 	mov	r2,r6
  803c90:	18c01014 	ori	r3,r3,64
  803c94:	88c0030d 	sth	r3,12(r17)
  803c98:	003fae06 	br	803b54 <__alt_mem_onchip_mem+0xff783b54>

00803c9c <_fflush_r>:
  803c9c:	defffd04 	addi	sp,sp,-12
  803ca0:	dc000115 	stw	r16,4(sp)
  803ca4:	dfc00215 	stw	ra,8(sp)
  803ca8:	2021883a 	mov	r16,r4
  803cac:	20000226 	beq	r4,zero,803cb8 <_fflush_r+0x1c>
  803cb0:	20800e17 	ldw	r2,56(r4)
  803cb4:	10000c26 	beq	r2,zero,803ce8 <_fflush_r+0x4c>
  803cb8:	2880030f 	ldh	r2,12(r5)
  803cbc:	1000051e 	bne	r2,zero,803cd4 <_fflush_r+0x38>
  803cc0:	0005883a 	mov	r2,zero
  803cc4:	dfc00217 	ldw	ra,8(sp)
  803cc8:	dc000117 	ldw	r16,4(sp)
  803ccc:	dec00304 	addi	sp,sp,12
  803cd0:	f800283a 	ret
  803cd4:	8009883a 	mov	r4,r16
  803cd8:	dfc00217 	ldw	ra,8(sp)
  803cdc:	dc000117 	ldw	r16,4(sp)
  803ce0:	dec00304 	addi	sp,sp,12
  803ce4:	0803a801 	jmpi	803a80 <__sflush_r>
  803ce8:	d9400015 	stw	r5,0(sp)
  803cec:	08040780 	call	804078 <__sinit>
  803cf0:	d9400017 	ldw	r5,0(sp)
  803cf4:	003ff006 	br	803cb8 <__alt_mem_onchip_mem+0xff783cb8>

00803cf8 <fflush>:
  803cf8:	20000526 	beq	r4,zero,803d10 <fflush+0x18>
  803cfc:	00802074 	movhi	r2,129
  803d00:	109b4a04 	addi	r2,r2,27944
  803d04:	200b883a 	mov	r5,r4
  803d08:	11000017 	ldw	r4,0(r2)
  803d0c:	0803c9c1 	jmpi	803c9c <_fflush_r>
  803d10:	00802074 	movhi	r2,129
  803d14:	109b4904 	addi	r2,r2,27940
  803d18:	11000017 	ldw	r4,0(r2)
  803d1c:	01402034 	movhi	r5,128
  803d20:	294f2704 	addi	r5,r5,15516
  803d24:	0804bf41 	jmpi	804bf4 <_fwalk_reent>

00803d28 <__fp_unlock>:
  803d28:	0005883a 	mov	r2,zero
  803d2c:	f800283a 	ret

00803d30 <_cleanup_r>:
  803d30:	01402034 	movhi	r5,128
  803d34:	294e5f04 	addi	r5,r5,14716
  803d38:	0804bf41 	jmpi	804bf4 <_fwalk_reent>

00803d3c <__sinit.part.1>:
  803d3c:	defff704 	addi	sp,sp,-36
  803d40:	00c02034 	movhi	r3,128
  803d44:	dfc00815 	stw	ra,32(sp)
  803d48:	ddc00715 	stw	r23,28(sp)
  803d4c:	dd800615 	stw	r22,24(sp)
  803d50:	dd400515 	stw	r21,20(sp)
  803d54:	dd000415 	stw	r20,16(sp)
  803d58:	dcc00315 	stw	r19,12(sp)
  803d5c:	dc800215 	stw	r18,8(sp)
  803d60:	dc400115 	stw	r17,4(sp)
  803d64:	dc000015 	stw	r16,0(sp)
  803d68:	18cf4c04 	addi	r3,r3,15664
  803d6c:	24000117 	ldw	r16,4(r4)
  803d70:	20c00f15 	stw	r3,60(r4)
  803d74:	2080bb04 	addi	r2,r4,748
  803d78:	00c000c4 	movi	r3,3
  803d7c:	20c0b915 	stw	r3,740(r4)
  803d80:	2080ba15 	stw	r2,744(r4)
  803d84:	2000b815 	stw	zero,736(r4)
  803d88:	05c00204 	movi	r23,8
  803d8c:	00800104 	movi	r2,4
  803d90:	2025883a 	mov	r18,r4
  803d94:	b80d883a 	mov	r6,r23
  803d98:	81001704 	addi	r4,r16,92
  803d9c:	000b883a 	mov	r5,zero
  803da0:	80000015 	stw	zero,0(r16)
  803da4:	80000115 	stw	zero,4(r16)
  803da8:	80000215 	stw	zero,8(r16)
  803dac:	8080030d 	sth	r2,12(r16)
  803db0:	80001915 	stw	zero,100(r16)
  803db4:	8000038d 	sth	zero,14(r16)
  803db8:	80000415 	stw	zero,16(r16)
  803dbc:	80000515 	stw	zero,20(r16)
  803dc0:	80000615 	stw	zero,24(r16)
  803dc4:	08057800 	call	805780 <memset>
  803dc8:	05802034 	movhi	r22,128
  803dcc:	94400217 	ldw	r17,8(r18)
  803dd0:	05402034 	movhi	r21,128
  803dd4:	05002034 	movhi	r20,128
  803dd8:	04c02034 	movhi	r19,128
  803ddc:	b596d304 	addi	r22,r22,23372
  803de0:	ad56ea04 	addi	r21,r21,23464
  803de4:	a5170904 	addi	r20,r20,23588
  803de8:	9cd72004 	addi	r19,r19,23680
  803dec:	85800815 	stw	r22,32(r16)
  803df0:	85400915 	stw	r21,36(r16)
  803df4:	85000a15 	stw	r20,40(r16)
  803df8:	84c00b15 	stw	r19,44(r16)
  803dfc:	84000715 	stw	r16,28(r16)
  803e00:	00800284 	movi	r2,10
  803e04:	8880030d 	sth	r2,12(r17)
  803e08:	00800044 	movi	r2,1
  803e0c:	b80d883a 	mov	r6,r23
  803e10:	89001704 	addi	r4,r17,92
  803e14:	000b883a 	mov	r5,zero
  803e18:	88000015 	stw	zero,0(r17)
  803e1c:	88000115 	stw	zero,4(r17)
  803e20:	88000215 	stw	zero,8(r17)
  803e24:	88001915 	stw	zero,100(r17)
  803e28:	8880038d 	sth	r2,14(r17)
  803e2c:	88000415 	stw	zero,16(r17)
  803e30:	88000515 	stw	zero,20(r17)
  803e34:	88000615 	stw	zero,24(r17)
  803e38:	08057800 	call	805780 <memset>
  803e3c:	94000317 	ldw	r16,12(r18)
  803e40:	00800484 	movi	r2,18
  803e44:	8c400715 	stw	r17,28(r17)
  803e48:	8d800815 	stw	r22,32(r17)
  803e4c:	8d400915 	stw	r21,36(r17)
  803e50:	8d000a15 	stw	r20,40(r17)
  803e54:	8cc00b15 	stw	r19,44(r17)
  803e58:	8080030d 	sth	r2,12(r16)
  803e5c:	00800084 	movi	r2,2
  803e60:	80000015 	stw	zero,0(r16)
  803e64:	80000115 	stw	zero,4(r16)
  803e68:	80000215 	stw	zero,8(r16)
  803e6c:	80001915 	stw	zero,100(r16)
  803e70:	8080038d 	sth	r2,14(r16)
  803e74:	80000415 	stw	zero,16(r16)
  803e78:	80000515 	stw	zero,20(r16)
  803e7c:	80000615 	stw	zero,24(r16)
  803e80:	b80d883a 	mov	r6,r23
  803e84:	000b883a 	mov	r5,zero
  803e88:	81001704 	addi	r4,r16,92
  803e8c:	08057800 	call	805780 <memset>
  803e90:	00800044 	movi	r2,1
  803e94:	84000715 	stw	r16,28(r16)
  803e98:	85800815 	stw	r22,32(r16)
  803e9c:	85400915 	stw	r21,36(r16)
  803ea0:	85000a15 	stw	r20,40(r16)
  803ea4:	84c00b15 	stw	r19,44(r16)
  803ea8:	90800e15 	stw	r2,56(r18)
  803eac:	dfc00817 	ldw	ra,32(sp)
  803eb0:	ddc00717 	ldw	r23,28(sp)
  803eb4:	dd800617 	ldw	r22,24(sp)
  803eb8:	dd400517 	ldw	r21,20(sp)
  803ebc:	dd000417 	ldw	r20,16(sp)
  803ec0:	dcc00317 	ldw	r19,12(sp)
  803ec4:	dc800217 	ldw	r18,8(sp)
  803ec8:	dc400117 	ldw	r17,4(sp)
  803ecc:	dc000017 	ldw	r16,0(sp)
  803ed0:	dec00904 	addi	sp,sp,36
  803ed4:	f800283a 	ret

00803ed8 <__fp_lock>:
  803ed8:	0005883a 	mov	r2,zero
  803edc:	f800283a 	ret

00803ee0 <__sfmoreglue>:
  803ee0:	defffc04 	addi	sp,sp,-16
  803ee4:	dc400115 	stw	r17,4(sp)
  803ee8:	2c7fffc4 	addi	r17,r5,-1
  803eec:	8c401a24 	muli	r17,r17,104
  803ef0:	dc800215 	stw	r18,8(sp)
  803ef4:	2825883a 	mov	r18,r5
  803ef8:	89401d04 	addi	r5,r17,116
  803efc:	dc000015 	stw	r16,0(sp)
  803f00:	dfc00315 	stw	ra,12(sp)
  803f04:	0804f740 	call	804f74 <_malloc_r>
  803f08:	1021883a 	mov	r16,r2
  803f0c:	10000726 	beq	r2,zero,803f2c <__sfmoreglue+0x4c>
  803f10:	11000304 	addi	r4,r2,12
  803f14:	10000015 	stw	zero,0(r2)
  803f18:	14800115 	stw	r18,4(r2)
  803f1c:	11000215 	stw	r4,8(r2)
  803f20:	89801a04 	addi	r6,r17,104
  803f24:	000b883a 	mov	r5,zero
  803f28:	08057800 	call	805780 <memset>
  803f2c:	8005883a 	mov	r2,r16
  803f30:	dfc00317 	ldw	ra,12(sp)
  803f34:	dc800217 	ldw	r18,8(sp)
  803f38:	dc400117 	ldw	r17,4(sp)
  803f3c:	dc000017 	ldw	r16,0(sp)
  803f40:	dec00404 	addi	sp,sp,16
  803f44:	f800283a 	ret

00803f48 <__sfp>:
  803f48:	defffb04 	addi	sp,sp,-20
  803f4c:	dc000015 	stw	r16,0(sp)
  803f50:	04002074 	movhi	r16,129
  803f54:	841b4904 	addi	r16,r16,27940
  803f58:	dcc00315 	stw	r19,12(sp)
  803f5c:	2027883a 	mov	r19,r4
  803f60:	81000017 	ldw	r4,0(r16)
  803f64:	dfc00415 	stw	ra,16(sp)
  803f68:	dc800215 	stw	r18,8(sp)
  803f6c:	20800e17 	ldw	r2,56(r4)
  803f70:	dc400115 	stw	r17,4(sp)
  803f74:	1000021e 	bne	r2,zero,803f80 <__sfp+0x38>
  803f78:	0803d3c0 	call	803d3c <__sinit.part.1>
  803f7c:	81000017 	ldw	r4,0(r16)
  803f80:	2480b804 	addi	r18,r4,736
  803f84:	047fffc4 	movi	r17,-1
  803f88:	91000117 	ldw	r4,4(r18)
  803f8c:	94000217 	ldw	r16,8(r18)
  803f90:	213fffc4 	addi	r4,r4,-1
  803f94:	20000a16 	blt	r4,zero,803fc0 <__sfp+0x78>
  803f98:	8080030f 	ldh	r2,12(r16)
  803f9c:	10000c26 	beq	r2,zero,803fd0 <__sfp+0x88>
  803fa0:	80c01d04 	addi	r3,r16,116
  803fa4:	00000206 	br	803fb0 <__sfp+0x68>
  803fa8:	18bfe60f 	ldh	r2,-104(r3)
  803fac:	10000826 	beq	r2,zero,803fd0 <__sfp+0x88>
  803fb0:	213fffc4 	addi	r4,r4,-1
  803fb4:	1c3ffd04 	addi	r16,r3,-12
  803fb8:	18c01a04 	addi	r3,r3,104
  803fbc:	247ffa1e 	bne	r4,r17,803fa8 <__alt_mem_onchip_mem+0xff783fa8>
  803fc0:	90800017 	ldw	r2,0(r18)
  803fc4:	10001d26 	beq	r2,zero,80403c <__sfp+0xf4>
  803fc8:	1025883a 	mov	r18,r2
  803fcc:	003fee06 	br	803f88 <__alt_mem_onchip_mem+0xff783f88>
  803fd0:	00bfffc4 	movi	r2,-1
  803fd4:	8080038d 	sth	r2,14(r16)
  803fd8:	00800044 	movi	r2,1
  803fdc:	8080030d 	sth	r2,12(r16)
  803fe0:	80001915 	stw	zero,100(r16)
  803fe4:	80000015 	stw	zero,0(r16)
  803fe8:	80000215 	stw	zero,8(r16)
  803fec:	80000115 	stw	zero,4(r16)
  803ff0:	80000415 	stw	zero,16(r16)
  803ff4:	80000515 	stw	zero,20(r16)
  803ff8:	80000615 	stw	zero,24(r16)
  803ffc:	01800204 	movi	r6,8
  804000:	000b883a 	mov	r5,zero
  804004:	81001704 	addi	r4,r16,92
  804008:	08057800 	call	805780 <memset>
  80400c:	8005883a 	mov	r2,r16
  804010:	80000c15 	stw	zero,48(r16)
  804014:	80000d15 	stw	zero,52(r16)
  804018:	80001115 	stw	zero,68(r16)
  80401c:	80001215 	stw	zero,72(r16)
  804020:	dfc00417 	ldw	ra,16(sp)
  804024:	dcc00317 	ldw	r19,12(sp)
  804028:	dc800217 	ldw	r18,8(sp)
  80402c:	dc400117 	ldw	r17,4(sp)
  804030:	dc000017 	ldw	r16,0(sp)
  804034:	dec00504 	addi	sp,sp,20
  804038:	f800283a 	ret
  80403c:	01400104 	movi	r5,4
  804040:	9809883a 	mov	r4,r19
  804044:	0803ee00 	call	803ee0 <__sfmoreglue>
  804048:	90800015 	stw	r2,0(r18)
  80404c:	103fde1e 	bne	r2,zero,803fc8 <__alt_mem_onchip_mem+0xff783fc8>
  804050:	00800304 	movi	r2,12
  804054:	98800015 	stw	r2,0(r19)
  804058:	0005883a 	mov	r2,zero
  80405c:	003ff006 	br	804020 <__alt_mem_onchip_mem+0xff784020>

00804060 <_cleanup>:
  804060:	00802074 	movhi	r2,129
  804064:	109b4904 	addi	r2,r2,27940
  804068:	11000017 	ldw	r4,0(r2)
  80406c:	01402034 	movhi	r5,128
  804070:	294e5f04 	addi	r5,r5,14716
  804074:	0804bf41 	jmpi	804bf4 <_fwalk_reent>

00804078 <__sinit>:
  804078:	20800e17 	ldw	r2,56(r4)
  80407c:	10000126 	beq	r2,zero,804084 <__sinit+0xc>
  804080:	f800283a 	ret
  804084:	0803d3c1 	jmpi	803d3c <__sinit.part.1>

00804088 <__sfp_lock_acquire>:
  804088:	f800283a 	ret

0080408c <__sfp_lock_release>:
  80408c:	f800283a 	ret

00804090 <__sinit_lock_acquire>:
  804090:	f800283a 	ret

00804094 <__sinit_lock_release>:
  804094:	f800283a 	ret

00804098 <__fp_lock_all>:
  804098:	00802074 	movhi	r2,129
  80409c:	109b4a04 	addi	r2,r2,27944
  8040a0:	11000017 	ldw	r4,0(r2)
  8040a4:	01402034 	movhi	r5,128
  8040a8:	294fb604 	addi	r5,r5,16088
  8040ac:	0804b301 	jmpi	804b30 <_fwalk>

008040b0 <__fp_unlock_all>:
  8040b0:	00802074 	movhi	r2,129
  8040b4:	109b4a04 	addi	r2,r2,27944
  8040b8:	11000017 	ldw	r4,0(r2)
  8040bc:	01402034 	movhi	r5,128
  8040c0:	294f4a04 	addi	r5,r5,15656
  8040c4:	0804b301 	jmpi	804b30 <_fwalk>

008040c8 <_fopen_r>:
  8040c8:	defffa04 	addi	sp,sp,-24
  8040cc:	3005883a 	mov	r2,r6
  8040d0:	dcc00415 	stw	r19,16(sp)
  8040d4:	d80d883a 	mov	r6,sp
  8040d8:	2827883a 	mov	r19,r5
  8040dc:	100b883a 	mov	r5,r2
  8040e0:	dc800315 	stw	r18,12(sp)
  8040e4:	dfc00515 	stw	ra,20(sp)
  8040e8:	dc400215 	stw	r17,8(sp)
  8040ec:	dc000115 	stw	r16,4(sp)
  8040f0:	2025883a 	mov	r18,r4
  8040f4:	08099e80 	call	8099e8 <__sflags>
  8040f8:	10002726 	beq	r2,zero,804198 <_fopen_r+0xd0>
  8040fc:	9009883a 	mov	r4,r18
  804100:	1023883a 	mov	r17,r2
  804104:	0803f480 	call	803f48 <__sfp>
  804108:	1021883a 	mov	r16,r2
  80410c:	10002226 	beq	r2,zero,804198 <_fopen_r+0xd0>
  804110:	d9800017 	ldw	r6,0(sp)
  804114:	01c06d84 	movi	r7,438
  804118:	980b883a 	mov	r5,r19
  80411c:	9009883a 	mov	r4,r18
  804120:	08058a80 	call	8058a8 <_open_r>
  804124:	10001916 	blt	r2,zero,80418c <_fopen_r+0xc4>
  804128:	8080038d 	sth	r2,14(r16)
  80412c:	00802034 	movhi	r2,128
  804130:	1096d304 	addi	r2,r2,23372
  804134:	80800815 	stw	r2,32(r16)
  804138:	00802034 	movhi	r2,128
  80413c:	1096ea04 	addi	r2,r2,23464
  804140:	80800915 	stw	r2,36(r16)
  804144:	00802034 	movhi	r2,128
  804148:	10970904 	addi	r2,r2,23588
  80414c:	80800a15 	stw	r2,40(r16)
  804150:	00802034 	movhi	r2,128
  804154:	10972004 	addi	r2,r2,23680
  804158:	8440030d 	sth	r17,12(r16)
  80415c:	84000715 	stw	r16,28(r16)
  804160:	80800b15 	stw	r2,44(r16)
  804164:	8c40400c 	andi	r17,r17,256
  804168:	88000d1e 	bne	r17,zero,8041a0 <_fopen_r+0xd8>
  80416c:	8005883a 	mov	r2,r16
  804170:	dfc00517 	ldw	ra,20(sp)
  804174:	dcc00417 	ldw	r19,16(sp)
  804178:	dc800317 	ldw	r18,12(sp)
  80417c:	dc400217 	ldw	r17,8(sp)
  804180:	dc000117 	ldw	r16,4(sp)
  804184:	dec00604 	addi	sp,sp,24
  804188:	f800283a 	ret
  80418c:	08040880 	call	804088 <__sfp_lock_acquire>
  804190:	8000030d 	sth	zero,12(r16)
  804194:	080408c0 	call	80408c <__sfp_lock_release>
  804198:	0005883a 	mov	r2,zero
  80419c:	003ff406 	br	804170 <__alt_mem_onchip_mem+0xff784170>
  8041a0:	01c00084 	movi	r7,2
  8041a4:	000d883a 	mov	r6,zero
  8041a8:	800b883a 	mov	r5,r16
  8041ac:	9009883a 	mov	r4,r18
  8041b0:	08046540 	call	804654 <_fseek_r>
  8041b4:	8005883a 	mov	r2,r16
  8041b8:	003fed06 	br	804170 <__alt_mem_onchip_mem+0xff784170>

008041bc <fopen>:
  8041bc:	00802074 	movhi	r2,129
  8041c0:	109b4a04 	addi	r2,r2,27944
  8041c4:	280d883a 	mov	r6,r5
  8041c8:	200b883a 	mov	r5,r4
  8041cc:	11000017 	ldw	r4,0(r2)
  8041d0:	08040c81 	jmpi	8040c8 <_fopen_r>

008041d4 <_fprintf_r>:
  8041d4:	defffe04 	addi	sp,sp,-8
  8041d8:	2809883a 	mov	r4,r5
  8041dc:	300b883a 	mov	r5,r6
  8041e0:	dfc00015 	stw	ra,0(sp)
  8041e4:	d9c00115 	stw	r7,4(sp)
  8041e8:	d9800104 	addi	r6,sp,4
  8041ec:	0807e800 	call	807e80 <__vfprintf_internal>
  8041f0:	dfc00017 	ldw	ra,0(sp)
  8041f4:	dec00204 	addi	sp,sp,8
  8041f8:	f800283a 	ret

008041fc <fprintf>:
  8041fc:	defffd04 	addi	sp,sp,-12
  804200:	dfc00015 	stw	ra,0(sp)
  804204:	d9800115 	stw	r6,4(sp)
  804208:	d9c00215 	stw	r7,8(sp)
  80420c:	d9800104 	addi	r6,sp,4
  804210:	0807e800 	call	807e80 <__vfprintf_internal>
  804214:	dfc00017 	ldw	ra,0(sp)
  804218:	dec00304 	addi	sp,sp,12
  80421c:	f800283a 	ret

00804220 <_malloc_trim_r>:
  804220:	defffb04 	addi	sp,sp,-20
  804224:	dcc00315 	stw	r19,12(sp)
  804228:	04c02074 	movhi	r19,129
  80422c:	dc800215 	stw	r18,8(sp)
  804230:	dc400115 	stw	r17,4(sp)
  804234:	dc000015 	stw	r16,0(sp)
  804238:	dfc00415 	stw	ra,16(sp)
  80423c:	2821883a 	mov	r16,r5
  804240:	9cd52d04 	addi	r19,r19,21684
  804244:	2025883a 	mov	r18,r4
  804248:	08110240 	call	811024 <__malloc_lock>
  80424c:	98800217 	ldw	r2,8(r19)
  804250:	14400117 	ldw	r17,4(r2)
  804254:	00bfff04 	movi	r2,-4
  804258:	88a2703a 	and	r17,r17,r2
  80425c:	8c21c83a 	sub	r16,r17,r16
  804260:	8403fbc4 	addi	r16,r16,4079
  804264:	8020d33a 	srli	r16,r16,12
  804268:	0083ffc4 	movi	r2,4095
  80426c:	843fffc4 	addi	r16,r16,-1
  804270:	8020933a 	slli	r16,r16,12
  804274:	1400060e 	bge	r2,r16,804290 <_malloc_trim_r+0x70>
  804278:	000b883a 	mov	r5,zero
  80427c:	9009883a 	mov	r4,r18
  804280:	0805af80 	call	805af8 <_sbrk_r>
  804284:	98c00217 	ldw	r3,8(r19)
  804288:	1c47883a 	add	r3,r3,r17
  80428c:	10c00a26 	beq	r2,r3,8042b8 <_malloc_trim_r+0x98>
  804290:	9009883a 	mov	r4,r18
  804294:	08110480 	call	811048 <__malloc_unlock>
  804298:	0005883a 	mov	r2,zero
  80429c:	dfc00417 	ldw	ra,16(sp)
  8042a0:	dcc00317 	ldw	r19,12(sp)
  8042a4:	dc800217 	ldw	r18,8(sp)
  8042a8:	dc400117 	ldw	r17,4(sp)
  8042ac:	dc000017 	ldw	r16,0(sp)
  8042b0:	dec00504 	addi	sp,sp,20
  8042b4:	f800283a 	ret
  8042b8:	040bc83a 	sub	r5,zero,r16
  8042bc:	9009883a 	mov	r4,r18
  8042c0:	0805af80 	call	805af8 <_sbrk_r>
  8042c4:	00ffffc4 	movi	r3,-1
  8042c8:	10c00d26 	beq	r2,r3,804300 <_malloc_trim_r+0xe0>
  8042cc:	00c020b4 	movhi	r3,130
  8042d0:	18e2fd04 	addi	r3,r3,-29708
  8042d4:	18800017 	ldw	r2,0(r3)
  8042d8:	99000217 	ldw	r4,8(r19)
  8042dc:	8c23c83a 	sub	r17,r17,r16
  8042e0:	8c400054 	ori	r17,r17,1
  8042e4:	1421c83a 	sub	r16,r2,r16
  8042e8:	24400115 	stw	r17,4(r4)
  8042ec:	9009883a 	mov	r4,r18
  8042f0:	1c000015 	stw	r16,0(r3)
  8042f4:	08110480 	call	811048 <__malloc_unlock>
  8042f8:	00800044 	movi	r2,1
  8042fc:	003fe706 	br	80429c <__alt_mem_onchip_mem+0xff78429c>
  804300:	000b883a 	mov	r5,zero
  804304:	9009883a 	mov	r4,r18
  804308:	0805af80 	call	805af8 <_sbrk_r>
  80430c:	99000217 	ldw	r4,8(r19)
  804310:	014003c4 	movi	r5,15
  804314:	1107c83a 	sub	r3,r2,r4
  804318:	28ffdd0e 	bge	r5,r3,804290 <__alt_mem_onchip_mem+0xff784290>
  80431c:	01402074 	movhi	r5,129
  804320:	295b4b04 	addi	r5,r5,27948
  804324:	29400017 	ldw	r5,0(r5)
  804328:	18c00054 	ori	r3,r3,1
  80432c:	20c00115 	stw	r3,4(r4)
  804330:	00c020b4 	movhi	r3,130
  804334:	1145c83a 	sub	r2,r2,r5
  804338:	18e2fd04 	addi	r3,r3,-29708
  80433c:	18800015 	stw	r2,0(r3)
  804340:	003fd306 	br	804290 <__alt_mem_onchip_mem+0xff784290>

00804344 <_free_r>:
  804344:	28004126 	beq	r5,zero,80444c <_free_r+0x108>
  804348:	defffd04 	addi	sp,sp,-12
  80434c:	dc400115 	stw	r17,4(sp)
  804350:	dc000015 	stw	r16,0(sp)
  804354:	2023883a 	mov	r17,r4
  804358:	2821883a 	mov	r16,r5
  80435c:	dfc00215 	stw	ra,8(sp)
  804360:	08110240 	call	811024 <__malloc_lock>
  804364:	81ffff17 	ldw	r7,-4(r16)
  804368:	00bfff84 	movi	r2,-2
  80436c:	01002074 	movhi	r4,129
  804370:	81bffe04 	addi	r6,r16,-8
  804374:	3884703a 	and	r2,r7,r2
  804378:	21152d04 	addi	r4,r4,21684
  80437c:	308b883a 	add	r5,r6,r2
  804380:	2a400117 	ldw	r9,4(r5)
  804384:	22000217 	ldw	r8,8(r4)
  804388:	00ffff04 	movi	r3,-4
  80438c:	48c6703a 	and	r3,r9,r3
  804390:	2a005726 	beq	r5,r8,8044f0 <_free_r+0x1ac>
  804394:	28c00115 	stw	r3,4(r5)
  804398:	39c0004c 	andi	r7,r7,1
  80439c:	3800091e 	bne	r7,zero,8043c4 <_free_r+0x80>
  8043a0:	823ffe17 	ldw	r8,-8(r16)
  8043a4:	22400204 	addi	r9,r4,8
  8043a8:	320dc83a 	sub	r6,r6,r8
  8043ac:	31c00217 	ldw	r7,8(r6)
  8043b0:	1205883a 	add	r2,r2,r8
  8043b4:	3a406526 	beq	r7,r9,80454c <_free_r+0x208>
  8043b8:	32000317 	ldw	r8,12(r6)
  8043bc:	3a000315 	stw	r8,12(r7)
  8043c0:	41c00215 	stw	r7,8(r8)
  8043c4:	28cf883a 	add	r7,r5,r3
  8043c8:	39c00117 	ldw	r7,4(r7)
  8043cc:	39c0004c 	andi	r7,r7,1
  8043d0:	38003a26 	beq	r7,zero,8044bc <_free_r+0x178>
  8043d4:	10c00054 	ori	r3,r2,1
  8043d8:	30c00115 	stw	r3,4(r6)
  8043dc:	3087883a 	add	r3,r6,r2
  8043e0:	18800015 	stw	r2,0(r3)
  8043e4:	00c07fc4 	movi	r3,511
  8043e8:	18801936 	bltu	r3,r2,804450 <_free_r+0x10c>
  8043ec:	1004d0fa 	srli	r2,r2,3
  8043f0:	01c00044 	movi	r7,1
  8043f4:	21400117 	ldw	r5,4(r4)
  8043f8:	10c00044 	addi	r3,r2,1
  8043fc:	18c7883a 	add	r3,r3,r3
  804400:	1005d0ba 	srai	r2,r2,2
  804404:	18c7883a 	add	r3,r3,r3
  804408:	18c7883a 	add	r3,r3,r3
  80440c:	1907883a 	add	r3,r3,r4
  804410:	3884983a 	sll	r2,r7,r2
  804414:	19c00017 	ldw	r7,0(r3)
  804418:	1a3ffe04 	addi	r8,r3,-8
  80441c:	1144b03a 	or	r2,r2,r5
  804420:	32000315 	stw	r8,12(r6)
  804424:	31c00215 	stw	r7,8(r6)
  804428:	20800115 	stw	r2,4(r4)
  80442c:	19800015 	stw	r6,0(r3)
  804430:	39800315 	stw	r6,12(r7)
  804434:	8809883a 	mov	r4,r17
  804438:	dfc00217 	ldw	ra,8(sp)
  80443c:	dc400117 	ldw	r17,4(sp)
  804440:	dc000017 	ldw	r16,0(sp)
  804444:	dec00304 	addi	sp,sp,12
  804448:	08110481 	jmpi	811048 <__malloc_unlock>
  80444c:	f800283a 	ret
  804450:	100ad27a 	srli	r5,r2,9
  804454:	00c00104 	movi	r3,4
  804458:	19404a36 	bltu	r3,r5,804584 <_free_r+0x240>
  80445c:	100ad1ba 	srli	r5,r2,6
  804460:	28c00e44 	addi	r3,r5,57
  804464:	18c7883a 	add	r3,r3,r3
  804468:	29400e04 	addi	r5,r5,56
  80446c:	18c7883a 	add	r3,r3,r3
  804470:	18c7883a 	add	r3,r3,r3
  804474:	1909883a 	add	r4,r3,r4
  804478:	20c00017 	ldw	r3,0(r4)
  80447c:	01c02074 	movhi	r7,129
  804480:	213ffe04 	addi	r4,r4,-8
  804484:	39d52d04 	addi	r7,r7,21684
  804488:	20c04426 	beq	r4,r3,80459c <_free_r+0x258>
  80448c:	01ffff04 	movi	r7,-4
  804490:	19400117 	ldw	r5,4(r3)
  804494:	29ca703a 	and	r5,r5,r7
  804498:	1140022e 	bgeu	r2,r5,8044a4 <_free_r+0x160>
  80449c:	18c00217 	ldw	r3,8(r3)
  8044a0:	20fffb1e 	bne	r4,r3,804490 <__alt_mem_onchip_mem+0xff784490>
  8044a4:	19000317 	ldw	r4,12(r3)
  8044a8:	31000315 	stw	r4,12(r6)
  8044ac:	30c00215 	stw	r3,8(r6)
  8044b0:	21800215 	stw	r6,8(r4)
  8044b4:	19800315 	stw	r6,12(r3)
  8044b8:	003fde06 	br	804434 <__alt_mem_onchip_mem+0xff784434>
  8044bc:	29c00217 	ldw	r7,8(r5)
  8044c0:	10c5883a 	add	r2,r2,r3
  8044c4:	00c02074 	movhi	r3,129
  8044c8:	18d52f04 	addi	r3,r3,21692
  8044cc:	38c03b26 	beq	r7,r3,8045bc <_free_r+0x278>
  8044d0:	2a000317 	ldw	r8,12(r5)
  8044d4:	11400054 	ori	r5,r2,1
  8044d8:	3087883a 	add	r3,r6,r2
  8044dc:	3a000315 	stw	r8,12(r7)
  8044e0:	41c00215 	stw	r7,8(r8)
  8044e4:	31400115 	stw	r5,4(r6)
  8044e8:	18800015 	stw	r2,0(r3)
  8044ec:	003fbd06 	br	8043e4 <__alt_mem_onchip_mem+0xff7843e4>
  8044f0:	39c0004c 	andi	r7,r7,1
  8044f4:	10c5883a 	add	r2,r2,r3
  8044f8:	3800071e 	bne	r7,zero,804518 <_free_r+0x1d4>
  8044fc:	81fffe17 	ldw	r7,-8(r16)
  804500:	31cdc83a 	sub	r6,r6,r7
  804504:	30c00317 	ldw	r3,12(r6)
  804508:	31400217 	ldw	r5,8(r6)
  80450c:	11c5883a 	add	r2,r2,r7
  804510:	28c00315 	stw	r3,12(r5)
  804514:	19400215 	stw	r5,8(r3)
  804518:	10c00054 	ori	r3,r2,1
  80451c:	30c00115 	stw	r3,4(r6)
  804520:	00c02074 	movhi	r3,129
  804524:	18db4c04 	addi	r3,r3,27952
  804528:	18c00017 	ldw	r3,0(r3)
  80452c:	21800215 	stw	r6,8(r4)
  804530:	10ffc036 	bltu	r2,r3,804434 <__alt_mem_onchip_mem+0xff784434>
  804534:	008020b4 	movhi	r2,130
  804538:	10a2f204 	addi	r2,r2,-29752
  80453c:	11400017 	ldw	r5,0(r2)
  804540:	8809883a 	mov	r4,r17
  804544:	08042200 	call	804220 <_malloc_trim_r>
  804548:	003fba06 	br	804434 <__alt_mem_onchip_mem+0xff784434>
  80454c:	28c9883a 	add	r4,r5,r3
  804550:	21000117 	ldw	r4,4(r4)
  804554:	2100004c 	andi	r4,r4,1
  804558:	2000391e 	bne	r4,zero,804640 <_free_r+0x2fc>
  80455c:	29c00217 	ldw	r7,8(r5)
  804560:	29000317 	ldw	r4,12(r5)
  804564:	1885883a 	add	r2,r3,r2
  804568:	10c00054 	ori	r3,r2,1
  80456c:	39000315 	stw	r4,12(r7)
  804570:	21c00215 	stw	r7,8(r4)
  804574:	30c00115 	stw	r3,4(r6)
  804578:	308d883a 	add	r6,r6,r2
  80457c:	30800015 	stw	r2,0(r6)
  804580:	003fac06 	br	804434 <__alt_mem_onchip_mem+0xff784434>
  804584:	00c00504 	movi	r3,20
  804588:	19401536 	bltu	r3,r5,8045e0 <_free_r+0x29c>
  80458c:	28c01704 	addi	r3,r5,92
  804590:	18c7883a 	add	r3,r3,r3
  804594:	294016c4 	addi	r5,r5,91
  804598:	003fb406 	br	80446c <__alt_mem_onchip_mem+0xff78446c>
  80459c:	280bd0ba 	srai	r5,r5,2
  8045a0:	00c00044 	movi	r3,1
  8045a4:	38800117 	ldw	r2,4(r7)
  8045a8:	194a983a 	sll	r5,r3,r5
  8045ac:	2007883a 	mov	r3,r4
  8045b0:	2884b03a 	or	r2,r5,r2
  8045b4:	38800115 	stw	r2,4(r7)
  8045b8:	003fbb06 	br	8044a8 <__alt_mem_onchip_mem+0xff7844a8>
  8045bc:	21800515 	stw	r6,20(r4)
  8045c0:	21800415 	stw	r6,16(r4)
  8045c4:	10c00054 	ori	r3,r2,1
  8045c8:	31c00315 	stw	r7,12(r6)
  8045cc:	31c00215 	stw	r7,8(r6)
  8045d0:	30c00115 	stw	r3,4(r6)
  8045d4:	308d883a 	add	r6,r6,r2
  8045d8:	30800015 	stw	r2,0(r6)
  8045dc:	003f9506 	br	804434 <__alt_mem_onchip_mem+0xff784434>
  8045e0:	00c01504 	movi	r3,84
  8045e4:	19400536 	bltu	r3,r5,8045fc <_free_r+0x2b8>
  8045e8:	100ad33a 	srli	r5,r2,12
  8045ec:	28c01bc4 	addi	r3,r5,111
  8045f0:	18c7883a 	add	r3,r3,r3
  8045f4:	29401b84 	addi	r5,r5,110
  8045f8:	003f9c06 	br	80446c <__alt_mem_onchip_mem+0xff78446c>
  8045fc:	00c05504 	movi	r3,340
  804600:	19400536 	bltu	r3,r5,804618 <_free_r+0x2d4>
  804604:	100ad3fa 	srli	r5,r2,15
  804608:	28c01e04 	addi	r3,r5,120
  80460c:	18c7883a 	add	r3,r3,r3
  804610:	29401dc4 	addi	r5,r5,119
  804614:	003f9506 	br	80446c <__alt_mem_onchip_mem+0xff78446c>
  804618:	00c15504 	movi	r3,1364
  80461c:	19400536 	bltu	r3,r5,804634 <_free_r+0x2f0>
  804620:	100ad4ba 	srli	r5,r2,18
  804624:	28c01f44 	addi	r3,r5,125
  804628:	18c7883a 	add	r3,r3,r3
  80462c:	29401f04 	addi	r5,r5,124
  804630:	003f8e06 	br	80446c <__alt_mem_onchip_mem+0xff78446c>
  804634:	00c03f84 	movi	r3,254
  804638:	01401f84 	movi	r5,126
  80463c:	003f8b06 	br	80446c <__alt_mem_onchip_mem+0xff78446c>
  804640:	10c00054 	ori	r3,r2,1
  804644:	30c00115 	stw	r3,4(r6)
  804648:	308d883a 	add	r6,r6,r2
  80464c:	30800015 	stw	r2,0(r6)
  804650:	003f7806 	br	804434 <__alt_mem_onchip_mem+0xff784434>

00804654 <_fseek_r>:
  804654:	08046741 	jmpi	804674 <_fseeko_r>

00804658 <fseek>:
  804658:	00802074 	movhi	r2,129
  80465c:	109b4a04 	addi	r2,r2,27944
  804660:	300f883a 	mov	r7,r6
  804664:	280d883a 	mov	r6,r5
  804668:	200b883a 	mov	r5,r4
  80466c:	11000017 	ldw	r4,0(r2)
  804670:	08046741 	jmpi	804674 <_fseeko_r>

00804674 <_fseeko_r>:
  804674:	deffe804 	addi	sp,sp,-96
  804678:	dd401415 	stw	r21,80(sp)
  80467c:	dc801115 	stw	r18,68(sp)
  804680:	dc401015 	stw	r17,64(sp)
  804684:	dc000f15 	stw	r16,60(sp)
  804688:	dfc01715 	stw	ra,92(sp)
  80468c:	ddc01615 	stw	r23,88(sp)
  804690:	dd801515 	stw	r22,84(sp)
  804694:	dd001315 	stw	r20,76(sp)
  804698:	dcc01215 	stw	r19,72(sp)
  80469c:	2023883a 	mov	r17,r4
  8046a0:	2821883a 	mov	r16,r5
  8046a4:	302b883a 	mov	r21,r6
  8046a8:	3825883a 	mov	r18,r7
  8046ac:	20000226 	beq	r4,zero,8046b8 <_fseeko_r+0x44>
  8046b0:	20800e17 	ldw	r2,56(r4)
  8046b4:	10005a26 	beq	r2,zero,804820 <_fseeko_r+0x1ac>
  8046b8:	8080030b 	ldhu	r2,12(r16)
  8046bc:	00c04204 	movi	r3,264
  8046c0:	1080420c 	andi	r2,r2,264
  8046c4:	10c05b26 	beq	r2,r3,804834 <_fseeko_r+0x1c0>
  8046c8:	85000a17 	ldw	r20,40(r16)
  8046cc:	a000f626 	beq	r20,zero,804aa8 <_fseeko_r+0x434>
  8046d0:	00800044 	movi	r2,1
  8046d4:	90803e26 	beq	r18,r2,8047d0 <_fseeko_r+0x15c>
  8046d8:	00800084 	movi	r2,2
  8046dc:	90801026 	beq	r18,r2,804720 <_fseeko_r+0xac>
  8046e0:	90000f26 	beq	r18,zero,804720 <_fseeko_r+0xac>
  8046e4:	00800584 	movi	r2,22
  8046e8:	88800015 	stw	r2,0(r17)
  8046ec:	04ffffc4 	movi	r19,-1
  8046f0:	9805883a 	mov	r2,r19
  8046f4:	dfc01717 	ldw	ra,92(sp)
  8046f8:	ddc01617 	ldw	r23,88(sp)
  8046fc:	dd801517 	ldw	r22,84(sp)
  804700:	dd401417 	ldw	r21,80(sp)
  804704:	dd001317 	ldw	r20,76(sp)
  804708:	dcc01217 	ldw	r19,72(sp)
  80470c:	dc801117 	ldw	r18,68(sp)
  804710:	dc401017 	ldw	r17,64(sp)
  804714:	dc000f17 	ldw	r16,60(sp)
  804718:	dec01804 	addi	sp,sp,96
  80471c:	f800283a 	ret
  804720:	80800417 	ldw	r2,16(r16)
  804724:	002f883a 	mov	r23,zero
  804728:	0027883a 	mov	r19,zero
  80472c:	1000cb26 	beq	r2,zero,804a5c <_fseeko_r+0x3e8>
  804730:	8080030b 	ldhu	r2,12(r16)
  804734:	10c2068c 	andi	r3,r2,2074
  804738:	1800071e 	bne	r3,zero,804758 <_fseeko_r+0xe4>
  80473c:	10c1000c 	andi	r3,r2,1024
  804740:	1800451e 	bne	r3,zero,804858 <_fseeko_r+0x1e4>
  804744:	00c02034 	movhi	r3,128
  804748:	18d70904 	addi	r3,r3,23588
  80474c:	a0c0b726 	beq	r20,r3,804a2c <_fseeko_r+0x3b8>
  804750:	10820014 	ori	r2,r2,2048
  804754:	8080030d 	sth	r2,12(r16)
  804758:	800b883a 	mov	r5,r16
  80475c:	8809883a 	mov	r4,r17
  804760:	0803c9c0 	call	803c9c <_fflush_r>
  804764:	1027883a 	mov	r19,r2
  804768:	103fe01e 	bne	r2,zero,8046ec <__alt_mem_onchip_mem+0xff7846ec>
  80476c:	81400717 	ldw	r5,28(r16)
  804770:	900f883a 	mov	r7,r18
  804774:	a80d883a 	mov	r6,r21
  804778:	8809883a 	mov	r4,r17
  80477c:	a03ee83a 	callr	r20
  804780:	00ffffc4 	movi	r3,-1
  804784:	10ffd926 	beq	r2,r3,8046ec <__alt_mem_onchip_mem+0xff7846ec>
  804788:	81400c17 	ldw	r5,48(r16)
  80478c:	28000526 	beq	r5,zero,8047a4 <_fseeko_r+0x130>
  804790:	80801004 	addi	r2,r16,64
  804794:	28800226 	beq	r5,r2,8047a0 <_fseeko_r+0x12c>
  804798:	8809883a 	mov	r4,r17
  80479c:	08043440 	call	804344 <_free_r>
  8047a0:	80000c15 	stw	zero,48(r16)
  8047a4:	8080030b 	ldhu	r2,12(r16)
  8047a8:	80c00417 	ldw	r3,16(r16)
  8047ac:	80000115 	stw	zero,4(r16)
  8047b0:	10bdf7cc 	andi	r2,r2,63455
  8047b4:	80c00015 	stw	r3,0(r16)
  8047b8:	8080030d 	sth	r2,12(r16)
  8047bc:	01800204 	movi	r6,8
  8047c0:	000b883a 	mov	r5,zero
  8047c4:	81001704 	addi	r4,r16,92
  8047c8:	08057800 	call	805780 <memset>
  8047cc:	003fc806 	br	8046f0 <__alt_mem_onchip_mem+0xff7846f0>
  8047d0:	800b883a 	mov	r5,r16
  8047d4:	8809883a 	mov	r4,r17
  8047d8:	0803c9c0 	call	803c9c <_fflush_r>
  8047dc:	8080030b 	ldhu	r2,12(r16)
  8047e0:	10c4000c 	andi	r3,r2,4096
  8047e4:	18008726 	beq	r3,zero,804a04 <_fseeko_r+0x390>
  8047e8:	84c01417 	ldw	r19,80(r16)
  8047ec:	10c0010c 	andi	r3,r2,4
  8047f0:	1800431e 	bne	r3,zero,804900 <_fseeko_r+0x28c>
  8047f4:	1080020c 	andi	r2,r2,8
  8047f8:	10008026 	beq	r2,zero,8049fc <_fseeko_r+0x388>
  8047fc:	80c00017 	ldw	r3,0(r16)
  804800:	80800417 	ldw	r2,16(r16)
  804804:	18000226 	beq	r3,zero,804810 <_fseeko_r+0x19c>
  804808:	1887c83a 	sub	r3,r3,r2
  80480c:	98e7883a 	add	r19,r19,r3
  804810:	aceb883a 	add	r21,r21,r19
  804814:	05c00044 	movi	r23,1
  804818:	0025883a 	mov	r18,zero
  80481c:	003fc306 	br	80472c <__alt_mem_onchip_mem+0xff78472c>
  804820:	08040780 	call	804078 <__sinit>
  804824:	8080030b 	ldhu	r2,12(r16)
  804828:	00c04204 	movi	r3,264
  80482c:	1080420c 	andi	r2,r2,264
  804830:	10ffa51e 	bne	r2,r3,8046c8 <__alt_mem_onchip_mem+0xff7846c8>
  804834:	800b883a 	mov	r5,r16
  804838:	8809883a 	mov	r4,r17
  80483c:	0803c9c0 	call	803c9c <_fflush_r>
  804840:	003fa106 	br	8046c8 <__alt_mem_onchip_mem+0xff7846c8>
  804844:	8080030b 	ldhu	r2,12(r16)
  804848:	00c10004 	movi	r3,1024
  80484c:	80c01315 	stw	r3,76(r16)
  804850:	10c4b03a 	or	r2,r2,r3
  804854:	8080030d 	sth	r2,12(r16)
  804858:	9000311e 	bne	r18,zero,804920 <_fseeko_r+0x2ac>
  80485c:	a82d883a 	mov	r22,r21
  804860:	b800371e 	bne	r23,zero,804940 <_fseeko_r+0x2cc>
  804864:	8080030b 	ldhu	r2,12(r16)
  804868:	1084000c 	andi	r2,r2,4096
  80486c:	10007f26 	beq	r2,zero,804a6c <_fseeko_r+0x3f8>
  804870:	80801417 	ldw	r2,80(r16)
  804874:	81800117 	ldw	r6,4(r16)
  804878:	81400c17 	ldw	r5,48(r16)
  80487c:	11a7c83a 	sub	r19,r2,r6
  804880:	28008226 	beq	r5,zero,804a8c <_fseeko_r+0x418>
  804884:	81c00f17 	ldw	r7,60(r16)
  804888:	99e7c83a 	sub	r19,r19,r7
  80488c:	81000e17 	ldw	r4,56(r16)
  804890:	80800417 	ldw	r2,16(r16)
  804894:	99a7883a 	add	r19,r19,r6
  804898:	2087c83a 	sub	r3,r4,r2
  80489c:	98e7c83a 	sub	r19,r19,r3
  8048a0:	38c7883a 	add	r3,r7,r3
  8048a4:	b4c02b16 	blt	r22,r19,804954 <_fseeko_r+0x2e0>
  8048a8:	98c9883a 	add	r4,r19,r3
  8048ac:	b100292e 	bgeu	r22,r4,804954 <_fseeko_r+0x2e0>
  8048b0:	b4e7c83a 	sub	r19,r22,r19
  8048b4:	14c5883a 	add	r2,r2,r19
  8048b8:	1ce7c83a 	sub	r19,r3,r19
  8048bc:	80800015 	stw	r2,0(r16)
  8048c0:	84c00115 	stw	r19,4(r16)
  8048c4:	28000526 	beq	r5,zero,8048dc <_fseeko_r+0x268>
  8048c8:	80801004 	addi	r2,r16,64
  8048cc:	28800226 	beq	r5,r2,8048d8 <_fseeko_r+0x264>
  8048d0:	8809883a 	mov	r4,r17
  8048d4:	08043440 	call	804344 <_free_r>
  8048d8:	80000c15 	stw	zero,48(r16)
  8048dc:	8080030b 	ldhu	r2,12(r16)
  8048e0:	01800204 	movi	r6,8
  8048e4:	000b883a 	mov	r5,zero
  8048e8:	10bff7cc 	andi	r2,r2,65503
  8048ec:	8080030d 	sth	r2,12(r16)
  8048f0:	81001704 	addi	r4,r16,92
  8048f4:	08057800 	call	805780 <memset>
  8048f8:	0027883a 	mov	r19,zero
  8048fc:	003f7c06 	br	8046f0 <__alt_mem_onchip_mem+0xff7846f0>
  804900:	80c00117 	ldw	r3,4(r16)
  804904:	80800c17 	ldw	r2,48(r16)
  804908:	98e7c83a 	sub	r19,r19,r3
  80490c:	10003b26 	beq	r2,zero,8049fc <_fseeko_r+0x388>
  804910:	80c00f17 	ldw	r3,60(r16)
  804914:	80800417 	ldw	r2,16(r16)
  804918:	98e7c83a 	sub	r19,r19,r3
  80491c:	003fbc06 	br	804810 <__alt_mem_onchip_mem+0xff784810>
  804920:	8140038f 	ldh	r5,14(r16)
  804924:	d80d883a 	mov	r6,sp
  804928:	8809883a 	mov	r4,r17
  80492c:	0804ad40 	call	804ad4 <_fstat_r>
  804930:	103f891e 	bne	r2,zero,804758 <__alt_mem_onchip_mem+0xff784758>
  804934:	dd800417 	ldw	r22,16(sp)
  804938:	adad883a 	add	r22,r21,r22
  80493c:	b83fc926 	beq	r23,zero,804864 <__alt_mem_onchip_mem+0xff784864>
  804940:	81400c17 	ldw	r5,48(r16)
  804944:	81800117 	ldw	r6,4(r16)
  804948:	28005026 	beq	r5,zero,804a8c <_fseeko_r+0x418>
  80494c:	81c00f17 	ldw	r7,60(r16)
  804950:	003fce06 	br	80488c <__alt_mem_onchip_mem+0xff78488c>
  804954:	84c01317 	ldw	r19,76(r16)
  804958:	81400717 	ldw	r5,28(r16)
  80495c:	000f883a 	mov	r7,zero
  804960:	04e7c83a 	sub	r19,zero,r19
  804964:	9da6703a 	and	r19,r19,r22
  804968:	980d883a 	mov	r6,r19
  80496c:	8809883a 	mov	r4,r17
  804970:	a03ee83a 	callr	r20
  804974:	00ffffc4 	movi	r3,-1
  804978:	10ff7726 	beq	r2,r3,804758 <__alt_mem_onchip_mem+0xff784758>
  80497c:	80800417 	ldw	r2,16(r16)
  804980:	81400c17 	ldw	r5,48(r16)
  804984:	80000115 	stw	zero,4(r16)
  804988:	80800015 	stw	r2,0(r16)
  80498c:	28000526 	beq	r5,zero,8049a4 <_fseeko_r+0x330>
  804990:	80801004 	addi	r2,r16,64
  804994:	28800226 	beq	r5,r2,8049a0 <_fseeko_r+0x32c>
  804998:	8809883a 	mov	r4,r17
  80499c:	08043440 	call	804344 <_free_r>
  8049a0:	80000c15 	stw	zero,48(r16)
  8049a4:	8080030b 	ldhu	r2,12(r16)
  8049a8:	b4e7c83a 	sub	r19,r22,r19
  8049ac:	10bff7cc 	andi	r2,r2,65503
  8049b0:	8080030d 	sth	r2,12(r16)
  8049b4:	98000b26 	beq	r19,zero,8049e4 <_fseeko_r+0x370>
  8049b8:	800b883a 	mov	r5,r16
  8049bc:	8809883a 	mov	r4,r17
  8049c0:	08059240 	call	805924 <__srefill_r>
  8049c4:	103f641e 	bne	r2,zero,804758 <__alt_mem_onchip_mem+0xff784758>
  8049c8:	80800117 	ldw	r2,4(r16)
  8049cc:	14ff6236 	bltu	r2,r19,804758 <__alt_mem_onchip_mem+0xff784758>
  8049d0:	80c00017 	ldw	r3,0(r16)
  8049d4:	14c5c83a 	sub	r2,r2,r19
  8049d8:	80800115 	stw	r2,4(r16)
  8049dc:	1ce7883a 	add	r19,r3,r19
  8049e0:	84c00015 	stw	r19,0(r16)
  8049e4:	01800204 	movi	r6,8
  8049e8:	000b883a 	mov	r5,zero
  8049ec:	81001704 	addi	r4,r16,92
  8049f0:	08057800 	call	805780 <memset>
